---
triple:          'arm64-apple-darwin'
binary-path:     '/Users/pawanchanukya/Desktop/CPP assignment/File Streaming/main'
relocations:
  - { offsetInCU: 0xB15B, offset: 0xB15B, size: 0x8, addend: 0x0, symName: __ZNSt3__16chronogeB7v160006INS0_12system_clockENS0_8durationIxNS_5ratioILl1ELl1000000EEEEES6_EEbRKNS0_10time_pointIT_T0_EERKNS7_IS8_T1_EE, symObjAddr: 0x3F88, symBinAddr: 0x1000066C4, symSize: 0x34 }
  - { offsetInCU: 0xB1B0, offset: 0xB1B0, size: 0x8, addend: 0x0, symName: __ZNSt3__16chronoltB7v160006INS0_12system_clockENS0_8durationIxNS_5ratioILl1ELl1000000EEEEES6_EEbRKNS0_10time_pointIT_T0_EERKNS7_IS8_T1_EE, symObjAddr: 0x8E14, symBinAddr: 0x10000B550, symSize: 0x54 }
  - { offsetInCU: 0xB205, offset: 0xB205, size: 0x8, addend: 0x0, symName: __ZNSt3__16chronoltB7v160006IxNS_5ratioILl1ELl1000000EEExS3_EEbRKNS0_8durationIT_T0_EERKNS4_IT1_T2_EE, symObjAddr: 0x8E68, symBinAddr: 0x10000B5A4, symSize: 0x34 }
  - { offsetInCU: 0xC623, offset: 0xC623, size: 0x8, addend: 0x0, symName: __ZNSt3__124__put_character_sequenceB7v160006IcNS_11char_traitsIcEEEERNS_13basic_ostreamIT_T0_EES7_PKS4_m, symObjAddr: 0x9280, symBinAddr: 0x10000B9BC, symSize: 0x1EC }
  - { offsetInCU: 0x1126F, offset: 0x1126F, size: 0x8, addend: 0x0, symName: __ZNSt3__1rsB7v160006IcNS_11char_traitsIcEEEERNS_13basic_istreamIT_T0_EES7_RKNS_8__iom_t9IS4_EE, symObjAddr: 0x3468, symBinAddr: 0x100005BA4, symSize: 0x1C0 }
  - { offsetInCU: 0x11A3B, offset: 0x11A3B, size: 0x8, addend: 0x0, symName: __ZNSt3__1lsB7v160006IcNS_11char_traitsIcEEEERNS_13basic_ostreamIT_T0_EES7_RKNS_9__iom_t10IS4_EE, symObjAddr: 0x37A4, symBinAddr: 0x100005EE0, symSize: 0x200 }
  - { offsetInCU: 0x147E8, offset: 0x147E8, size: 0x8, addend: 0x0, symName: __ZNSt3__1lsB7v160006INS_11char_traitsIcEEEERNS_13basic_ostreamIcT_EES6_PKc, symObjAddr: 0x840, symBinAddr: 0x100002F7C, symSize: 0x48 }
  - { offsetInCU: 0x1482E, offset: 0x1482E, size: 0x8, addend: 0x0, symName: __ZNSt3__14endlB7v160006IcNS_11char_traitsIcEEEERNS_13basic_ostreamIT_T0_EES7_, symObjAddr: 0x8B4, symBinAddr: 0x100002FF0, symSize: 0x58 }
  - { offsetInCU: 0x1486E, offset: 0x1486E, size: 0x8, addend: 0x0, symName: __ZNSt3__1neB7v160006IP3carEEbRKNS_11__wrap_iterIT_EES7_, symObjAddr: 0x96C, symBinAddr: 0x1000030A8, symSize: 0x34 }
  - { offsetInCU: 0x148B1, offset: 0x148B1, size: 0x8, addend: 0x0, symName: __ZNSt3__1lsB7v160006IcNS_11char_traitsIcEENS_9allocatorIcEEEERNS_13basic_ostreamIT_T0_EES9_RKNS_12basic_stringIS6_S7_T1_EE, symObjAddr: 0x9B8, symBinAddr: 0x1000030F4, symSize: 0x4C }
  - { offsetInCU: 0x14909, offset: 0x14909, size: 0x8, addend: 0x0, symName: __ZNSt3__1neB7v160006IP8customerEEbRKNS_11__wrap_iterIT_EES7_, symObjAddr: 0x1388, symBinAddr: 0x100003AC4, symSize: 0x34 }
  - { offsetInCU: 0x151B5, offset: 0x151B5, size: 0x8, addend: 0x0, symName: __ZNSt3__17getlineB7v160006IcNS_11char_traitsIcEENS_9allocatorIcEEEERNS_13basic_istreamIT_T0_EES9_RNS_12basic_stringIS6_S7_T1_EE, symObjAddr: 0x16A4, symBinAddr: 0x100003DE0, symSize: 0x5C }
  - { offsetInCU: 0x153B9, offset: 0x153B9, size: 0x8, addend: 0x0, symName: __ZNSt3__1lsB7v160006INS_11char_traitsIcEEEERNS_13basic_ostreamIcT_EES6_c, symObjAddr: 0x2148, symBinAddr: 0x100004884, symSize: 0x34 }
  - { offsetInCU: 0x1540A, offset: 0x1540A, size: 0x8, addend: 0x0, symName: __ZNSt3__1neB7v160006IP8employeeEEbRKNS_11__wrap_iterIT_EES7_, symObjAddr: 0x2C38, symBinAddr: 0x100005374, symSize: 0x34 }
  - { offsetInCU: 0x15790, offset: 0x15790, size: 0x8, addend: 0x0, symName: __ZNSt3__18get_timeB7v160006IcEENS_8__iom_t9IT_EEP2tmPKS2_, symObjAddr: 0x3628, symBinAddr: 0x100005D64, symSize: 0x38 }
  - { offsetInCU: 0x159B8, offset: 0x159B8, size: 0x8, addend: 0x0, symName: __ZNSt3__18put_timeB7v160006IcEENS_9__iom_t10IT_EEPK2tmPKS2_, symObjAddr: 0x39A4, symBinAddr: 0x1000060E0, symSize: 0x38 }
  - { offsetInCU: 0x15A09, offset: 0x15A09, size: 0x8, addend: 0x0, symName: __ZNSt3__1neB7v160006IP6recordEEbRKNS_11__wrap_iterIT_EES7_, symObjAddr: 0x4EAC, symBinAddr: 0x1000075E8, symSize: 0x34 }
  - { offsetInCU: 0x15C36, offset: 0x15C36, size: 0x8, addend: 0x0, symName: __ZNSt3__1rsB7v160006IcNS_11char_traitsIcEENS_9allocatorIcEEEERNS_13basic_istreamIT_T0_EES9_RNS_12basic_stringIS6_S7_T1_EE, symObjAddr: 0x6494, symBinAddr: 0x100008BD0, symSize: 0x308 }
  - { offsetInCU: 0x15D03, offset: 0x15D03, size: 0x8, addend: 0x0, symName: __ZNSt3__1eqB7v160006INS_9allocatorIcEEEEbRKNS_12basic_stringIcNS_11char_traitsIcEET_EES9_, symObjAddr: 0x679C, symBinAddr: 0x100008ED8, symSize: 0x148 }
  - { offsetInCU: 0x15D76, offset: 0x15D76, size: 0x8, addend: 0x0, symName: __ZNSt3__1neB7v160006IcNS_11char_traitsIcEENS_9allocatorIcEEEEbRKNS_12basic_stringIT_T0_T1_EESB_, symObjAddr: 0x6910, symBinAddr: 0x10000904C, symSize: 0x34 }
  - { offsetInCU: 0x15DCE, offset: 0x15DCE, size: 0x8, addend: 0x0, symName: __ZNSt3__1eqB7v160006IP3carEEbRKNS_11__wrap_iterIT_EES7_, symObjAddr: 0x6B04, symBinAddr: 0x100009240, symSize: 0x48 }
  - { offsetInCU: 0x15E11, offset: 0x15E11, size: 0x8, addend: 0x0, symName: __ZNSt3__1eqB7v160006IP8customerEEbRKNS_11__wrap_iterIT_EES7_, symObjAddr: 0x6B64, symBinAddr: 0x1000092A0, symSize: 0x48 }
  - { offsetInCU: 0x15E54, offset: 0x15E54, size: 0x8, addend: 0x0, symName: __ZNSt3__122__make_exception_guardB7v160006INS_6vectorI3carNS_9allocatorIS2_EEE16__destroy_vectorEEENS_28__exception_guard_exceptionsIT_EES8_, symObjAddr: 0x6EB8, symBinAddr: 0x1000095F4, symSize: 0x40 }
  - { offsetInCU: 0x15E89, offset: 0x15E89, size: 0x8, addend: 0x0, symName: __ZNSt3__119__debug_db_insert_cB7v160006INS_6vectorI3carNS_9allocatorIS2_EEEEEEvPT_, symObjAddr: 0x6F2C, symBinAddr: 0x100009668, symSize: 0x10 }
  - { offsetInCU: 0x15EBA, offset: 0x15EBA, size: 0x8, addend: 0x0, symName: __ZNSt3__119__allocate_at_leastB7v160006INS_9allocatorI3carEEEENS_19__allocation_resultINS_16allocator_traitsIT_E7pointerEEERS6_m, symObjAddr: 0x7268, symBinAddr: 0x1000099A4, symSize: 0x40 }
  - { offsetInCU: 0x15EFD, offset: 0x15EFD, size: 0x8, addend: 0x0, symName: __ZNSt3__13minB7v160006ImEERKT_S3_S3_, symObjAddr: 0x73C0, symBinAddr: 0x100009AFC, symSize: 0x2C }
  - { offsetInCU: 0x15F40, offset: 0x15F40, size: 0x8, addend: 0x0, symName: __ZNSt3__13minB7v160006ImNS_6__lessImmEEEERKT_S5_S5_T0_, symObjAddr: 0x741C, symBinAddr: 0x100009B58, symSize: 0x54 }
  - { offsetInCU: 0x15FD5, offset: 0x15FD5, size: 0x8, addend: 0x0, symName: __ZNSt3__120__throw_length_errorB7v160006EPKc, symObjAddr: 0x74BC, symBinAddr: 0x100009BF8, symSize: 0x64 }
  - { offsetInCU: 0x15FFD, offset: 0x15FFD, size: 0x8, addend: 0x0, symName: __ZNSt3__117__libcpp_allocateB7v160006Emm, symObjAddr: 0x7630, symBinAddr: 0x100009D6C, symSize: 0x60 }
  - { offsetInCU: 0x16057, offset: 0x16057, size: 0x8, addend: 0x0, symName: __ZNSt3__124__is_overaligned_for_newB7v160006Em, symObjAddr: 0x7690, symBinAddr: 0x100009DCC, symSize: 0x20 }
  - { offsetInCU: 0x16085, offset: 0x16085, size: 0x8, addend: 0x0, symName: __ZNSt3__121__libcpp_operator_newB7v160006IJmSt11align_val_tEEEPvDpT_, symObjAddr: 0x76B0, symBinAddr: 0x100009DEC, symSize: 0x2C }
  - { offsetInCU: 0x160D2, offset: 0x160D2, size: 0x8, addend: 0x0, symName: __ZNSt3__121__libcpp_operator_newB7v160006IJmEEEPvDpT_, symObjAddr: 0x76DC, symBinAddr: 0x100009E18, symSize: 0x24 }
  - { offsetInCU: 0x1610B, offset: 0x1610B, size: 0x8, addend: 0x0, symName: __ZNSt3__112__to_addressB7v160006I3carEEPT_S3_, symObjAddr: 0x77F8, symBinAddr: 0x100009F34, symSize: 0x14 }
  - { offsetInCU: 0x16140, offset: 0x16140, size: 0x8, addend: 0x0, symName: __ZNSt3__130__uninitialized_allocator_copyB7v160006INS_9allocatorI3carEEPS2_S4_S4_EET2_RT_T0_T1_S5_, symObjAddr: 0x78A8, symBinAddr: 0x100009FE4, symSize: 0xF4 }
  - { offsetInCU: 0x161DE, offset: 0x161DE, size: 0x8, addend: 0x0, symName: __ZNSt3__122__make_exception_guardB7v160006INS_29_AllocatorDestroyRangeReverseINS_9allocatorI3carEEPS3_EEEENS_28__exception_guard_exceptionsIT_EES8_, symObjAddr: 0x7A14, symBinAddr: 0x10000A150, symSize: 0x4C }
  - { offsetInCU: 0x16214, offset: 0x16214, size: 0x8, addend: 0x0, symName: __ZNSt3__119__allocator_destroyB7v160006INS_9allocatorI3carEENS_16reverse_iteratorIPS2_EES6_EEvRT_T0_T1_, symObjAddr: 0x7D20, symBinAddr: 0x10000A45C, symSize: 0x70 }
  - { offsetInCU: 0x16277, offset: 0x16277, size: 0x8, addend: 0x0, symName: __ZNSt3__1neB7v160006IP3carS2_EEbRKNS_16reverse_iteratorIT_EERKNS3_IT0_EE, symObjAddr: 0x7DC4, symBinAddr: 0x10000A500, symSize: 0x48 }
  - { offsetInCU: 0x162C3, offset: 0x162C3, size: 0x8, addend: 0x0, symName: __ZNSt3__112__to_addressB7v160006INS_16reverse_iteratorIP3carEEvEENS_5decayIDTclsr19__to_address_helperIT_EE6__callclsr3stdE7declvalIRKS6_EEEEE4typeES8_, symObjAddr: 0x7E38, symBinAddr: 0x10000A574, symSize: 0x24 }
  - { offsetInCU: 0x16322, offset: 0x16322, size: 0x8, addend: 0x0, symName: __ZNSt3__118__debug_db_erase_cB7v160006INS_6vectorI3carNS_9allocatorIS2_EEEEEEvPT_, symObjAddr: 0x8148, symBinAddr: 0x10000A884, symSize: 0x10 }
  - { offsetInCU: 0x16353, offset: 0x16353, size: 0x8, addend: 0x0, symName: __ZNSt3__119__libcpp_deallocateB7v160006EPvmm, symObjAddr: 0x8284, symBinAddr: 0x10000A9C0, symSize: 0x60 }
  - { offsetInCU: 0x163B8, offset: 0x163B8, size: 0x8, addend: 0x0, symName: __ZNSt3__127__do_deallocate_handle_sizeB7v160006IJSt11align_val_tEEEvPvmDpT_, symObjAddr: 0x82E4, symBinAddr: 0x10000AA20, symSize: 0x30 }
  - { offsetInCU: 0x1640B, offset: 0x1640B, size: 0x8, addend: 0x0, symName: __ZNSt3__127__do_deallocate_handle_sizeB7v160006IJEEEvPvmDpT_, symObjAddr: 0x8314, symBinAddr: 0x10000AA50, symSize: 0x28 }
  - { offsetInCU: 0x16449, offset: 0x16449, size: 0x8, addend: 0x0, symName: __ZNSt3__124__libcpp_operator_deleteB7v160006IJPvSt11align_val_tEEEvDpT_, symObjAddr: 0x833C, symBinAddr: 0x10000AA78, symSize: 0x2C }
  - { offsetInCU: 0x16492, offset: 0x16492, size: 0x8, addend: 0x0, symName: __ZNSt3__124__libcpp_operator_deleteB7v160006IJPvEEEvDpT_, symObjAddr: 0x8368, symBinAddr: 0x10000AAA4, symSize: 0x24 }
  - { offsetInCU: 0x164FA, offset: 0x164FA, size: 0x8, addend: 0x0, symName: __ZNSt3__115__debug_db_swapB7v160006INS_6vectorI3carNS_9allocatorIS2_EEEEEEvPT_S7_, symObjAddr: 0x89B8, symBinAddr: 0x10000B0F4, symSize: 0x14 }
  - { offsetInCU: 0x16539, offset: 0x16539, size: 0x8, addend: 0x0, symName: __ZNSt3__1eqB7v160006IP8employeeEEbRKNS_11__wrap_iterIT_EES7_, symObjAddr: 0x8B48, symBinAddr: 0x10000B284, symSize: 0x48 }
  - { offsetInCU: 0x1657C, offset: 0x1657C, size: 0x8, addend: 0x0, symName: __ZNSt3__1eqB7v160006IP6recordEEbRKNS_11__wrap_iterIT_EES7_, symObjAddr: 0x8F5C, symBinAddr: 0x10000B698, symSize: 0x48 }
  - { offsetInCU: 0x165BF, offset: 0x165BF, size: 0x8, addend: 0x0, symName: __ZNSt3__119__debug_db_insert_cB7v160006INS_12basic_stringIcNS_11char_traitsIcEENS_9allocatorIcEEEEEEvPT_, symObjAddr: 0x9080, symBinAddr: 0x10000B7BC, symSize: 0x10 }
  - { offsetInCU: 0x165F0, offset: 0x165F0, size: 0x8, addend: 0x0, symName: __ZNSt3__116__pad_and_outputB7v160006IcNS_11char_traitsIcEEEENS_19ostreambuf_iteratorIT_T0_EES6_PKS4_S8_S8_RNS_8ios_baseES4_, symObjAddr: 0x94BC, symBinAddr: 0x10000BBF8, symSize: 0x240 }
  - { offsetInCU: 0x166BF, offset: 0x166BF, size: 0x8, addend: 0x0, symName: __ZNSt3__112__to_addressB7v160006IcEEPT_S2_, symObjAddr: 0x9934, symBinAddr: 0x10000C070, symSize: 0x14 }
  - { offsetInCU: 0x166F4, offset: 0x166F4, size: 0x8, addend: 0x0, symName: __ZNSt3__19use_facetB7v160006INS_5ctypeIcEEEERKT_RKNS_6localeE, symObjAddr: 0x9AE0, symBinAddr: 0x10000C21C, symSize: 0x2C }
  - { offsetInCU: 0x16AD4, offset: 0x16AD4, size: 0x8, addend: 0x0, symName: __ZNSt3__118__constexpr_strlenB7v160006EPKc, symObjAddr: 0x9B78, symBinAddr: 0x10000C2B4, symSize: 0x24 }
  - { offsetInCU: 0x16B00, offset: 0x16B00, size: 0x8, addend: 0x0, symName: __ZNSt3__112__to_addressB7v160006IKcEEPT_S3_, symObjAddr: 0x9C58, symBinAddr: 0x10000C394, symSize: 0x14 }
  - { offsetInCU: 0x16B68, offset: 0x16B68, size: 0x8, addend: 0x0, symName: __ZNSt3__118__debug_db_erase_cB7v160006INS_6vectorI8customerNS_9allocatorIS2_EEEEEEvPT_, symObjAddr: 0x9F2C, symBinAddr: 0x10000C668, symSize: 0x10 }
  - { offsetInCU: 0x16B99, offset: 0x16B99, size: 0x8, addend: 0x0, symName: __ZNSt3__112__to_addressB7v160006I8customerEEPT_S3_, symObjAddr: 0xA070, symBinAddr: 0x10000C7AC, symSize: 0x14 }
  - { offsetInCU: 0x16BCE, offset: 0x16BCE, size: 0x8, addend: 0x0, symName: __ZNSt3__119__debug_db_insert_cB7v160006INS_6vectorI8customerNS_9allocatorIS2_EEEEEEvPT_, symObjAddr: 0xA614, symBinAddr: 0x10000CD50, symSize: 0x10 }
  - { offsetInCU: 0x16BFF, offset: 0x16BFF, size: 0x8, addend: 0x0, symName: __ZNSt3__17getlineB7v160006IcNS_11char_traitsIcEENS_9allocatorIcEEEERNS_13basic_istreamIT_T0_EES9_RNS_12basic_stringIS6_S7_T1_EES6_, symObjAddr: 0xA6EC, symBinAddr: 0x10000CE28, symSize: 0x238 }
  - { offsetInCU: 0x16CBD, offset: 0x16CBD, size: 0x8, addend: 0x0, symName: __ZNSt3__125__debug_db_invalidate_allB7v160006INS_12basic_stringIcNS_11char_traitsIcEENS_9allocatorIcEEEEEEvPT_, symObjAddr: 0xABB4, symBinAddr: 0x10000D2F0, symSize: 0x10 }
  - { offsetInCU: 0x16EDA, offset: 0x16EDA, size: 0x8, addend: 0x0, symName: __ZNSt3__13maxB7v160006ImEERKT_S3_S3_, symObjAddr: 0xB2E0, symBinAddr: 0x10000DA1C, symSize: 0x2C }
  - { offsetInCU: 0x16F1D, offset: 0x16F1D, size: 0x8, addend: 0x0, symName: __ZNSt3__13maxB7v160006ImNS_6__lessImmEEEERKT_S5_S5_T0_, symObjAddr: 0xB3A8, symBinAddr: 0x10000DAE4, symSize: 0x54 }
  - { offsetInCU: 0x16F77, offset: 0x16F77, size: 0x8, addend: 0x0, symName: __ZNSt3__119__allocate_at_leastB7v160006INS_9allocatorI8customerEEEENS_19__allocation_resultINS_16allocator_traitsIT_E7pointerEEERS6_m, symObjAddr: 0xB518, symBinAddr: 0x10000DC54, symSize: 0x40 }
  - { offsetInCU: 0x16FBA, offset: 0x16FBA, size: 0x8, addend: 0x0, symName: __ZNSt3__142__uninitialized_allocator_move_if_noexceptB7v160006INS_9allocatorI8customerEENS_16reverse_iteratorIPS2_EES6_S6_EET2_RT_T0_T1_S7_, symObjAddr: 0xB6D0, symBinAddr: 0x10000DE0C, symSize: 0x12C }
  - { offsetInCU: 0x1705A, offset: 0x1705A, size: 0x8, addend: 0x0, symName: __ZNSt3__14swapB7v160006IP8customerEENS_9enable_ifIXaasr21is_move_constructibleIT_EE5valuesr18is_move_assignableIS4_EE5valueEvE4typeERS4_S7_, symObjAddr: 0xB848, symBinAddr: 0x10000DF84, symSize: 0x3C }
  - { offsetInCU: 0x170AB, offset: 0x170AB, size: 0x8, addend: 0x0, symName: __ZNSt3__125__debug_db_invalidate_allB7v160006INS_6vectorI8customerNS_9allocatorIS2_EEEEEEvPT_, symObjAddr: 0xB94C, symBinAddr: 0x10000E088, symSize: 0x10 }
  - { offsetInCU: 0x170DC, offset: 0x170DC, size: 0x8, addend: 0x0, symName: __ZNSt3__122__make_exception_guardB7v160006INS_29_AllocatorDestroyRangeReverseINS_9allocatorI8customerEENS_16reverse_iteratorIPS3_EEEEEENS_28__exception_guard_exceptionsIT_EESA_, symObjAddr: 0xB95C, symBinAddr: 0x10000E098, symSize: 0x4C }
  - { offsetInCU: 0x17112, offset: 0x17112, size: 0x8, addend: 0x0, symName: __ZNSt3__1neB7v160006IP8customerS2_EEbRKNS_16reverse_iteratorIT_EERKNS3_IT0_EE, symObjAddr: 0xB9EC, symBinAddr: 0x10000E128, symSize: 0x48 }
  - { offsetInCU: 0x1715E, offset: 0x1715E, size: 0x8, addend: 0x0, symName: __ZNSt3__112__to_addressB7v160006INS_16reverse_iteratorIP8customerEEvEENS_5decayIDTclsr19__to_address_helperIT_EE6__callclsr3stdE7declvalIRKS6_EEEEE4typeES8_, symObjAddr: 0xBA68, symBinAddr: 0x10000E1A4, symSize: 0x24 }
  - { offsetInCU: 0x17194, offset: 0x17194, size: 0x8, addend: 0x0, symName: __ZNSt3__115__debug_db_swapB7v160006INS_12basic_stringIcNS_11char_traitsIcEENS_9allocatorIcEEEEEEvPT_S8_, symObjAddr: 0xBDB4, symBinAddr: 0x10000E4F0, symSize: 0x14 }
  - { offsetInCU: 0x171FC, offset: 0x171FC, size: 0x8, addend: 0x0, symName: __ZNSt3__119__allocator_destroyB7v160006INS_9allocatorI8customerEENS_16reverse_iteratorINS4_IPS2_EEEES7_EEvRT_T0_T1_, symObjAddr: 0xC000, symBinAddr: 0x10000E73C, symSize: 0x70 }
  - { offsetInCU: 0x17261, offset: 0x17261, size: 0x8, addend: 0x0, symName: __ZNSt3__1neB7v160006INS_16reverse_iteratorIP8customerEES4_EEbRKNS1_IT_EERKNS1_IT0_EE, symObjAddr: 0xC0AC, symBinAddr: 0x10000E7E8, symSize: 0x60 }
  - { offsetInCU: 0x172AD, offset: 0x172AD, size: 0x8, addend: 0x0, symName: __ZNSt3__112__to_addressB7v160006INS_16reverse_iteratorINS1_IP8customerEEEEvEENS_5decayIDTclsr19__to_address_helperIT_EE6__callclsr3stdE7declvalIRKS7_EEEEE4typeES9_, symObjAddr: 0xC10C, symBinAddr: 0x10000E848, symSize: 0x24 }
  - { offsetInCU: 0x1730C, offset: 0x1730C, size: 0x8, addend: 0x0, symName: __ZNSt3__125__debug_db_invalidate_allB7v160006INS_6vectorI3carNS_9allocatorIS2_EEEEEEvPT_, symObjAddr: 0xC544, symBinAddr: 0x10000EC80, symSize: 0x10 }
  - { offsetInCU: 0x1733D, offset: 0x1733D, size: 0x8, addend: 0x0, symName: __ZNSt3__142__uninitialized_allocator_move_if_noexceptB7v160006INS_9allocatorI3carEENS_16reverse_iteratorIPS2_EES6_S6_EET2_RT_T0_T1_S7_, symObjAddr: 0xCB94, symBinAddr: 0x10000F2D0, symSize: 0x11C }
  - { offsetInCU: 0x173DD, offset: 0x173DD, size: 0x8, addend: 0x0, symName: __ZNSt3__14swapB7v160006IP3carEENS_9enable_ifIXaasr21is_move_constructibleIT_EE5valuesr18is_move_assignableIS4_EE5valueEvE4typeERS4_S7_, symObjAddr: 0xCCB0, symBinAddr: 0x10000F3EC, symSize: 0x3C }
  - { offsetInCU: 0x1742E, offset: 0x1742E, size: 0x8, addend: 0x0, symName: __ZNSt3__122__make_exception_guardB7v160006INS_29_AllocatorDestroyRangeReverseINS_9allocatorI3carEENS_16reverse_iteratorIPS3_EEEEEENS_28__exception_guard_exceptionsIT_EESA_, symObjAddr: 0xCCEC, symBinAddr: 0x10000F428, symSize: 0x4C }
  - { offsetInCU: 0x17464, offset: 0x17464, size: 0x8, addend: 0x0, symName: __ZNSt3__119__allocator_destroyB7v160006INS_9allocatorI3carEENS_16reverse_iteratorINS4_IPS2_EEEES7_EEvRT_T0_T1_, symObjAddr: 0xD044, symBinAddr: 0x10000F780, symSize: 0x70 }
  - { offsetInCU: 0x174C9, offset: 0x174C9, size: 0x8, addend: 0x0, symName: __ZNSt3__1neB7v160006INS_16reverse_iteratorIP3carEES4_EEbRKNS1_IT_EERKNS1_IT0_EE, symObjAddr: 0xD0F0, symBinAddr: 0x10000F82C, symSize: 0x60 }
  - { offsetInCU: 0x17515, offset: 0x17515, size: 0x8, addend: 0x0, symName: __ZNSt3__112__to_addressB7v160006INS_16reverse_iteratorINS1_IP3carEEEEvEENS_5decayIDTclsr19__to_address_helperIT_EE6__callclsr3stdE7declvalIRKS7_EEEEE4typeES9_, symObjAddr: 0xD150, symBinAddr: 0x10000F88C, symSize: 0x24 }
  - { offsetInCU: 0x17574, offset: 0x17574, size: 0x8, addend: 0x0, symName: __ZNSt3__118__debug_db_erase_cB7v160006INS_6vectorI8employeeNS_9allocatorIS2_EEEEEEvPT_, symObjAddr: 0xD6F8, symBinAddr: 0x10000FE34, symSize: 0x10 }
  - { offsetInCU: 0x175A5, offset: 0x175A5, size: 0x8, addend: 0x0, symName: __ZNSt3__112__to_addressB7v160006I8employeeEEPT_S3_, symObjAddr: 0xD83C, symBinAddr: 0x10000FF78, symSize: 0x14 }
  - { offsetInCU: 0x175DA, offset: 0x175DA, size: 0x8, addend: 0x0, symName: __ZNSt3__119__debug_db_insert_cB7v160006INS_6vectorI8employeeNS_9allocatorIS2_EEEEEEvPT_, symObjAddr: 0xDB34, symBinAddr: 0x100010270, symSize: 0x10 }
  - { offsetInCU: 0x1760B, offset: 0x1760B, size: 0x8, addend: 0x0, symName: __ZNSt3__119__allocate_at_leastB7v160006INS_9allocatorI8employeeEEEENS_19__allocation_resultINS_16allocator_traitsIT_E7pointerEEERS6_m, symObjAddr: 0xE37C, symBinAddr: 0x100010AB8, symSize: 0x40 }
  - { offsetInCU: 0x1764E, offset: 0x1764E, size: 0x8, addend: 0x0, symName: __ZNSt3__142__uninitialized_allocator_move_if_noexceptB7v160006INS_9allocatorI8employeeEENS_16reverse_iteratorIPS2_EES6_S6_EET2_RT_T0_T1_S7_, symObjAddr: 0xE534, symBinAddr: 0x100010C70, symSize: 0x12C }
  - { offsetInCU: 0x176EE, offset: 0x176EE, size: 0x8, addend: 0x0, symName: __ZNSt3__14swapB7v160006IP8employeeEENS_9enable_ifIXaasr21is_move_constructibleIT_EE5valuesr18is_move_assignableIS4_EE5valueEvE4typeERS4_S7_, symObjAddr: 0xE6AC, symBinAddr: 0x100010DE8, symSize: 0x3C }
  - { offsetInCU: 0x1773F, offset: 0x1773F, size: 0x8, addend: 0x0, symName: __ZNSt3__125__debug_db_invalidate_allB7v160006INS_6vectorI8employeeNS_9allocatorIS2_EEEEEEvPT_, symObjAddr: 0xE7B0, symBinAddr: 0x100010EEC, symSize: 0x10 }
  - { offsetInCU: 0x17770, offset: 0x17770, size: 0x8, addend: 0x0, symName: __ZNSt3__122__make_exception_guardB7v160006INS_29_AllocatorDestroyRangeReverseINS_9allocatorI8employeeEENS_16reverse_iteratorIPS3_EEEEEENS_28__exception_guard_exceptionsIT_EESA_, symObjAddr: 0xE7C0, symBinAddr: 0x100010EFC, symSize: 0x4C }
  - { offsetInCU: 0x177A6, offset: 0x177A6, size: 0x8, addend: 0x0, symName: __ZNSt3__1neB7v160006IP8employeeS2_EEbRKNS_16reverse_iteratorIT_EERKNS3_IT0_EE, symObjAddr: 0xE850, symBinAddr: 0x100010F8C, symSize: 0x48 }
  - { offsetInCU: 0x177F2, offset: 0x177F2, size: 0x8, addend: 0x0, symName: __ZNSt3__112__to_addressB7v160006INS_16reverse_iteratorIP8employeeEEvEENS_5decayIDTclsr19__to_address_helperIT_EE6__callclsr3stdE7declvalIRKS6_EEEEE4typeES8_, symObjAddr: 0xE8CC, symBinAddr: 0x100011008, symSize: 0x24 }
  - { offsetInCU: 0x17851, offset: 0x17851, size: 0x8, addend: 0x0, symName: __ZNSt3__119__allocator_destroyB7v160006INS_9allocatorI8employeeEENS_16reverse_iteratorINS4_IPS2_EEEES7_EEvRT_T0_T1_, symObjAddr: 0xEC3C, symBinAddr: 0x100011378, symSize: 0x70 }
  - { offsetInCU: 0x178B6, offset: 0x178B6, size: 0x8, addend: 0x0, symName: __ZNSt3__1neB7v160006INS_16reverse_iteratorIP8employeeEES4_EEbRKNS1_IT_EERKNS1_IT0_EE, symObjAddr: 0xECE8, symBinAddr: 0x100011424, symSize: 0x60 }
  - { offsetInCU: 0x17902, offset: 0x17902, size: 0x8, addend: 0x0, symName: __ZNSt3__112__to_addressB7v160006INS_16reverse_iteratorINS1_IP8employeeEEEEvEENS_5decayIDTclsr19__to_address_helperIT_EE6__callclsr3stdE7declvalIRKS7_EEEEE4typeES9_, symObjAddr: 0xED48, symBinAddr: 0x100011484, symSize: 0x24 }
  - { offsetInCU: 0x179A8, offset: 0x179A8, size: 0x8, addend: 0x0, symName: __ZNSt3__19use_facetB7v160006INS_8time_getIcNS_19istreambuf_iteratorIcNS_11char_traitsIcEEEEEEEERKT_RKNS_6localeE, symObjAddr: 0xF344, symBinAddr: 0x100011A80, symSize: 0x2C }
  - { offsetInCU: 0x17A26, offset: 0x17A26, size: 0x8, addend: 0x0, symName: __ZNSt3__19use_facetB7v160006INS_8time_putIcNS_19ostreambuf_iteratorIcNS_11char_traitsIcEEEEEEEERKT_RKNS_6localeE, symObjAddr: 0xF618, symBinAddr: 0x100011D54, symSize: 0x2C }
  - { offsetInCU: 0x17A5D, offset: 0x17A5D, size: 0x8, addend: 0x0, symName: __ZNSt3__119__debug_db_insert_cB7v160006INS_6vectorI6recordNS_9allocatorIS2_EEEEEEvPT_, symObjAddr: 0xF704, symBinAddr: 0x100011E40, symSize: 0x10 }
  - { offsetInCU: 0x17A8E, offset: 0x17A8E, size: 0x8, addend: 0x0, symName: __ZNSt3__118__debug_db_erase_cB7v160006INS_6vectorI6recordNS_9allocatorIS2_EEEEEEvPT_, symObjAddr: 0xF9E4, symBinAddr: 0x100012120, symSize: 0x10 }
  - { offsetInCU: 0x17ABF, offset: 0x17ABF, size: 0x8, addend: 0x0, symName: __ZNSt3__112__to_addressB7v160006I6recordEEPT_S3_, symObjAddr: 0xFB00, symBinAddr: 0x10001223C, symSize: 0x14 }
  - { offsetInCU: 0x17AF4, offset: 0x17AF4, size: 0x8, addend: 0x0, symName: __ZNSt3__119__allocate_at_leastB7v160006INS_9allocatorI6recordEEEENS_19__allocation_resultINS_16allocator_traitsIT_E7pointerEEERS6_m, symObjAddr: 0x1051C, symBinAddr: 0x100012C58, symSize: 0x40 }
  - { offsetInCU: 0x17B37, offset: 0x17B37, size: 0x8, addend: 0x0, symName: __ZNSt3__142__uninitialized_allocator_move_if_noexceptB7v160006INS_9allocatorI6recordEENS_16reverse_iteratorIPS2_EES6_S6_EET2_RT_T0_T1_S7_, symObjAddr: 0x106D4, symBinAddr: 0x100012E10, symSize: 0x12C }
  - { offsetInCU: 0x17BD7, offset: 0x17BD7, size: 0x8, addend: 0x0, symName: __ZNSt3__14swapB7v160006IP6recordEENS_9enable_ifIXaasr21is_move_constructibleIT_EE5valuesr18is_move_assignableIS4_EE5valueEvE4typeERS4_S7_, symObjAddr: 0x1084C, symBinAddr: 0x100012F88, symSize: 0x3C }
  - { offsetInCU: 0x17C28, offset: 0x17C28, size: 0x8, addend: 0x0, symName: __ZNSt3__125__debug_db_invalidate_allB7v160006INS_6vectorI6recordNS_9allocatorIS2_EEEEEEvPT_, symObjAddr: 0x10950, symBinAddr: 0x10001308C, symSize: 0x10 }
  - { offsetInCU: 0x17C59, offset: 0x17C59, size: 0x8, addend: 0x0, symName: __ZNSt3__122__make_exception_guardB7v160006INS_29_AllocatorDestroyRangeReverseINS_9allocatorI6recordEENS_16reverse_iteratorIPS3_EEEEEENS_28__exception_guard_exceptionsIT_EESA_, symObjAddr: 0x10960, symBinAddr: 0x10001309C, symSize: 0x4C }
  - { offsetInCU: 0x17C8F, offset: 0x17C8F, size: 0x8, addend: 0x0, symName: __ZNSt3__1neB7v160006IP6recordS2_EEbRKNS_16reverse_iteratorIT_EERKNS3_IT0_EE, symObjAddr: 0x109F0, symBinAddr: 0x10001312C, symSize: 0x48 }
  - { offsetInCU: 0x17CDB, offset: 0x17CDB, size: 0x8, addend: 0x0, symName: __ZNSt3__112__to_addressB7v160006INS_16reverse_iteratorIP6recordEEvEENS_5decayIDTclsr19__to_address_helperIT_EE6__callclsr3stdE7declvalIRKS6_EEEEE4typeES8_, symObjAddr: 0x10A6C, symBinAddr: 0x1000131A8, symSize: 0x24 }
  - { offsetInCU: 0x17D3A, offset: 0x17D3A, size: 0x8, addend: 0x0, symName: __ZNSt3__119__allocator_destroyB7v160006INS_9allocatorI6recordEENS_16reverse_iteratorINS4_IPS2_EEEES7_EEvRT_T0_T1_, symObjAddr: 0x10DFC, symBinAddr: 0x100013538, symSize: 0x70 }
  - { offsetInCU: 0x17D9F, offset: 0x17D9F, size: 0x8, addend: 0x0, symName: __ZNSt3__1neB7v160006INS_16reverse_iteratorIP6recordEES4_EEbRKNS1_IT_EERKNS1_IT0_EE, symObjAddr: 0x10EA8, symBinAddr: 0x1000135E4, symSize: 0x60 }
  - { offsetInCU: 0x17DEB, offset: 0x17DEB, size: 0x8, addend: 0x0, symName: __ZNSt3__112__to_addressB7v160006INS_16reverse_iteratorINS1_IP6recordEEEEvEENS_5decayIDTclsr19__to_address_helperIT_EE6__callclsr3stdE7declvalIRKS7_EEEEE4typeES9_, symObjAddr: 0x10F08, symBinAddr: 0x100013644, symSize: 0x24 }
  - { offsetInCU: 0x17E4A, offset: 0x17E4A, size: 0x8, addend: 0x0, symName: __ZNSt3__118__constexpr_memcmpB7v160006IcEEiPKT_S3_m, symObjAddr: 0x11480, symBinAddr: 0x100013BBC, symSize: 0x34 }
  - { offsetInCU: 0x18EEE, offset: 0x18EEE, size: 0x8, addend: 0x0, symName: __ZSt28__throw_bad_array_new_lengthB7v160006v, symObjAddr: 0x75FC, symBinAddr: 0x100009D38, symSize: 0x34 }
  - { offsetInCU: 0x1A0BE, offset: 0x1A0BE, size: 0x8, addend: 0x0, symName: __ZNSt3__16vectorI8customerNS_9allocatorIS1_EEE26__swap_out_circular_bufferERNS_14__split_bufferIS1_RS3_EE, symObjAddr: 0xB120, symBinAddr: 0x10000D85C, symSize: 0x118 }
  - { offsetInCU: 0x1A152, offset: 0x1A152, size: 0x8, addend: 0x0, symName: __ZNSt3__16vectorI3carNS_9allocatorIS1_EEE26__swap_out_circular_bufferERNS_14__split_bufferIS1_RS3_EE, symObjAddr: 0xC818, symBinAddr: 0x10000EF54, symSize: 0x118 }
  - { offsetInCU: 0x1A55B, offset: 0x1A55B, size: 0x8, addend: 0x0, symName: __ZNSt3__16vectorI8employeeNS_9allocatorIS1_EEE26__swap_out_circular_bufferERNS_14__split_bufferIS1_RS3_EE, symObjAddr: 0xE004, symBinAddr: 0x100010740, symSize: 0x118 }
  - { offsetInCU: 0x1AAA3, offset: 0x1AAA3, size: 0x8, addend: 0x0, symName: __ZNSt3__16vectorI6recordNS_9allocatorIS1_EEE26__swap_out_circular_bufferERNS_14__split_bufferIS1_RS3_EE, symObjAddr: 0x101A4, symBinAddr: 0x1000128E0, symSize: 0x118 }
  - { offsetInCU: 0x1CCD6, offset: 0x1CCD6, size: 0x8, addend: 0x0, symName: __ZN4userC2ENSt3__112basic_stringIcNS0_11char_traitsIcEENS0_9allocatorIcEEEEiS6_, symObjAddr: 0x0, symBinAddr: 0x10000273C, symSize: 0x80 }
  - { offsetInCU: 0x1CD2E, offset: 0x1CD2E, size: 0x8, addend: 0x0, symName: __ZN4userC1ENSt3__112basic_stringIcNS0_11char_traitsIcEENS0_9allocatorIcEEEEiS6_, symObjAddr: 0x80, symBinAddr: 0x1000027BC, symSize: 0x44 }
  - { offsetInCU: 0x1CD86, offset: 0x1CD86, size: 0x8, addend: 0x0, symName: __ZN4user7setNameENSt3__112basic_stringIcNS0_11char_traitsIcEENS0_9allocatorIcEEEE, symObjAddr: 0xC4, symBinAddr: 0x100002800, symSize: 0x2C }
  - { offsetInCU: 0x1CDBD, offset: 0x1CDBD, size: 0x8, addend: 0x0, symName: __ZN4user11setPasswordENSt3__112basic_stringIcNS0_11char_traitsIcEENS0_9allocatorIcEEEE, symObjAddr: 0xF0, symBinAddr: 0x10000282C, symSize: 0x30 }
  - { offsetInCU: 0x1CDF4, offset: 0x1CDF4, size: 0x8, addend: 0x0, symName: __ZN4user5setIdEi, symObjAddr: 0x120, symBinAddr: 0x10000285C, symSize: 0x20 }
  - { offsetInCU: 0x1CE2A, offset: 0x1CE2A, size: 0x8, addend: 0x0, symName: __ZN4user7getNameEv, symObjAddr: 0x140, symBinAddr: 0x10000287C, symSize: 0x38 }
  - { offsetInCU: 0x1CE52, offset: 0x1CE52, size: 0x8, addend: 0x0, symName: __ZN4user11getPasswordEv, symObjAddr: 0x178, symBinAddr: 0x1000028B4, symSize: 0x3C }
  - { offsetInCU: 0x1CE7A, offset: 0x1CE7A, size: 0x8, addend: 0x0, symName: __ZN4user5getIdEv, symObjAddr: 0x1B4, symBinAddr: 0x1000028F0, symSize: 0x18 }
  - { offsetInCU: 0x1CEA2, offset: 0x1CEA2, size: 0x8, addend: 0x0, symName: __ZN4user18get_available_carsEv, symObjAddr: 0x1CC, symBinAddr: 0x100002908, symSize: 0x250 }
  - { offsetInCU: 0x1CF2A, offset: 0x1CF2A, size: 0x8, addend: 0x0, symName: __Z12get_all_carsv, symObjAddr: 0x41C, symBinAddr: 0x100002B58, symSize: 0x3FC }
  - { offsetInCU: 0x1CF9B, offset: 0x1CF9B, size: 0x8, addend: 0x0, symName: __ZNKSt3__16vectorI3carNS_9allocatorIS1_EEE4sizeB7v160006Ev, symObjAddr: 0x818, symBinAddr: 0x100002F54, symSize: 0x28 }
  - { offsetInCU: 0x1CFC1, offset: 0x1CFC1, size: 0x8, addend: 0x0, symName: __ZNSt3__113basic_ostreamIcNS_11char_traitsIcEEElsB7v160006EPFRS3_S4_E, symObjAddr: 0x888, symBinAddr: 0x100002FC4, symSize: 0x2C }
  - { offsetInCU: 0x1CFF5, offset: 0x1CFF5, size: 0x8, addend: 0x0, symName: __ZNSt3__16vectorI3carNS_9allocatorIS1_EEE5beginB7v160006Ev, symObjAddr: 0x90C, symBinAddr: 0x100003048, symSize: 0x30 }
  - { offsetInCU: 0x1D01D, offset: 0x1D01D, size: 0x8, addend: 0x0, symName: __ZNSt3__16vectorI3carNS_9allocatorIS1_EEE3endB7v160006Ev, symObjAddr: 0x93C, symBinAddr: 0x100003078, symSize: 0x30 }
  - { offsetInCU: 0x1D045, offset: 0x1D045, size: 0x8, addend: 0x0, symName: __ZNKSt3__111__wrap_iterIP3carEdeB7v160006Ev, symObjAddr: 0x9A0, symBinAddr: 0x1000030DC, symSize: 0x18 }
  - { offsetInCU: 0x1D06B, offset: 0x1D06B, size: 0x8, addend: 0x0, symName: __ZNSt3__111__wrap_iterIP3carEppB7v160006Ev, symObjAddr: 0xA04, symBinAddr: 0x100003140, symSize: 0x20 }
  - { offsetInCU: 0x1D091, offset: 0x1D091, size: 0x8, addend: 0x0, symName: __ZNSt3__16vectorI3carNS_9allocatorIS1_EEED1B7v160006Ev, symObjAddr: 0xA24, symBinAddr: 0x100003160, symSize: 0x2C }
  - { offsetInCU: 0x1D0BA, offset: 0x1D0BA, size: 0x8, addend: 0x0, symName: __Z18get_customer_by_idiNSt3__112basic_stringIcNS_11char_traitsIcEENS_9allocatorIcEEEE, symObjAddr: 0xA50, symBinAddr: 0x10000318C, symSize: 0x1C0 }
  - { offsetInCU: 0x1D165, offset: 0x1D165, size: 0x8, addend: 0x0, symName: __Z17get_all_customersv, symObjAddr: 0xC10, symBinAddr: 0x10000334C, symSize: 0x718 }
  - { offsetInCU: 0x1D1EE, offset: 0x1D1EE, size: 0x8, addend: 0x0, symName: __ZNSt3__16vectorI8customerNS_9allocatorIS1_EEE5beginB7v160006Ev, symObjAddr: 0x1328, symBinAddr: 0x100003A64, symSize: 0x30 }
  - { offsetInCU: 0x1D216, offset: 0x1D216, size: 0x8, addend: 0x0, symName: __ZNSt3__16vectorI8customerNS_9allocatorIS1_EEE3endB7v160006Ev, symObjAddr: 0x1358, symBinAddr: 0x100003A94, symSize: 0x30 }
  - { offsetInCU: 0x1D23E, offset: 0x1D23E, size: 0x8, addend: 0x0, symName: __ZNKSt3__111__wrap_iterIP8customerEdeB7v160006Ev, symObjAddr: 0x13BC, symBinAddr: 0x100003AF8, symSize: 0x18 }
  - { offsetInCU: 0x1D264, offset: 0x1D264, size: 0x8, addend: 0x0, symName: __ZN8customerC1ERKS_, symObjAddr: 0x13D4, symBinAddr: 0x100003B10, symSize: 0x34 }
  - { offsetInCU: 0x1D299, offset: 0x1D299, size: 0x8, addend: 0x0, symName: __ZNSt3__111__wrap_iterIP8customerEppB7v160006Ev, symObjAddr: 0x1408, symBinAddr: 0x100003B44, symSize: 0x20 }
  - { offsetInCU: 0x1D2C4, offset: 0x1D2C4, size: 0x8, addend: 0x0, symName: __ZNSt3__112basic_stringIcNS_11char_traitsIcEENS_9allocatorIcEEEC1B7v160006IDnEEPKc, symObjAddr: 0x1428, symBinAddr: 0x100003B64, symSize: 0x34 }
  - { offsetInCU: 0x1D302, offset: 0x1D302, size: 0x8, addend: 0x0, symName: __ZN8customerD1Ev, symObjAddr: 0x145C, symBinAddr: 0x100003B98, symSize: 0x2C }
  - { offsetInCU: 0x1D32E, offset: 0x1D32E, size: 0x8, addend: 0x0, symName: __ZNSt3__16vectorI8customerNS_9allocatorIS1_EEED1B7v160006Ev, symObjAddr: 0x1488, symBinAddr: 0x100003BC4, symSize: 0x2C }
  - { offsetInCU: 0x1D3F2, offset: 0x1D3F2, size: 0x8, addend: 0x0, symName: __ZNSt3__114basic_ifstreamIcNS_11char_traitsIcEEEC1EPKcj, symObjAddr: 0x14B4, symBinAddr: 0x100003BF0, symSize: 0x16C }
  - { offsetInCU: 0x1D43C, offset: 0x1D43C, size: 0x8, addend: 0x0, symName: __ZNSt3__112basic_stringIcNS_11char_traitsIcEENS_9allocatorIcEEEC1B7v160006Ev, symObjAddr: 0x1620, symBinAddr: 0x100003D5C, symSize: 0x2C }
  - { offsetInCU: 0x1D466, offset: 0x1D466, size: 0x8, addend: 0x0, symName: __ZNSt3__16vectorI3carNS_9allocatorIS1_EEEC1B7v160006Ev, symObjAddr: 0x164C, symBinAddr: 0x100003D88, symSize: 0x2C }
  - { offsetInCU: 0x1D490, offset: 0x1D490, size: 0x8, addend: 0x0, symName: __ZNSt3__16vectorI8customerNS_9allocatorIS1_EEEC1B7v160006Ev, symObjAddr: 0x1678, symBinAddr: 0x100003DB4, symSize: 0x2C }
  - { offsetInCU: 0x1D4BA, offset: 0x1D4BA, size: 0x8, addend: 0x0, symName: __ZNKSt3__19basic_iosIcNS_11char_traitsIcEEEcvbB7v160006Ev, symObjAddr: 0x1700, symBinAddr: 0x100003E3C, symSize: 0x2C }
  - { offsetInCU: 0x1D4E0, offset: 0x1D4E0, size: 0x8, addend: 0x0, symName: __ZNKSt3__112basic_stringIcNS_11char_traitsIcEENS_9allocatorIcEEE5emptyB7v160006Ev, symObjAddr: 0x172C, symBinAddr: 0x100003E68, symSize: 0x30 }
  - { offsetInCU: 0x1D506, offset: 0x1D506, size: 0x8, addend: 0x0, symName: __ZNSt3__16vectorI8customerNS_9allocatorIS1_EEE9push_backB7v160006ERKS1_, symObjAddr: 0x175C, symBinAddr: 0x100003E98, symSize: 0x6C }
  - { offsetInCU: 0x1D543, offset: 0x1D543, size: 0x8, addend: 0x0, symName: __ZN8customeraSEOS_, symObjAddr: 0x17C8, symBinAddr: 0x100003F04, symSize: 0x5C }
  - { offsetInCU: 0x1D574, offset: 0x1D574, size: 0x8, addend: 0x0, symName: __ZNSt3__16vectorI3carNS_9allocatorIS1_EEE5clearB7v160006Ev, symObjAddr: 0x1824, symBinAddr: 0x100003F60, symSize: 0x54 }
  - { offsetInCU: 0x1D5A8, offset: 0x1D5A8, size: 0x8, addend: 0x0, symName: __Z12stringToDateRKNSt3__112basic_stringIcNS_11char_traitsIcEENS_9allocatorIcEEEE, symObjAddr: 0x1878, symBinAddr: 0x100003FB4, symSize: 0xD4 }
  - { offsetInCU: 0x1D606, offset: 0x1D606, size: 0x8, addend: 0x0, symName: __ZNSt3__16vectorI3carNS_9allocatorIS1_EEE9push_backB7v160006ERKS1_, symObjAddr: 0x194C, symBinAddr: 0x100004088, symSize: 0x6C }
  - { offsetInCU: 0x1D643, offset: 0x1D643, size: 0x8, addend: 0x0, symName: __ZN3caraSEOS_, symObjAddr: 0x19B8, symBinAddr: 0x1000040F4, symSize: 0x48 }
  - { offsetInCU: 0x1D674, offset: 0x1D674, size: 0x8, addend: 0x0, symName: __ZN3carD1Ev, symObjAddr: 0x1A00, symBinAddr: 0x10000413C, symSize: 0x2C }
  - { offsetInCU: 0x1D6A5, offset: 0x1D6A5, size: 0x8, addend: 0x0, symName: __ZNSt3__114basic_ifstreamIcNS_11char_traitsIcEEED1Ev, symObjAddr: 0x1A2C, symBinAddr: 0x100004168, symSize: 0x40 }
  - { offsetInCU: 0x1D6D2, offset: 0x1D6D2, size: 0x8, addend: 0x0, symName: __Z20write_into_customersRNSt3__16vectorI8customerNS_9allocatorIS1_EEEE, symObjAddr: 0x1A6C, symBinAddr: 0x1000041A8, symSize: 0x548 }
  - { offsetInCU: 0x1D7BF, offset: 0x1D7BF, size: 0x8, addend: 0x0, symName: __ZNSt3__114basic_ofstreamIcNS_11char_traitsIcEEEC1EPKcj, symObjAddr: 0x1FB4, symBinAddr: 0x1000046F0, symSize: 0x16C }
  - { offsetInCU: 0x1D809, offset: 0x1D809, size: 0x8, addend: 0x0, symName: __ZNKSt3__19basic_iosIcNS_11char_traitsIcEEEntB7v160006Ev, symObjAddr: 0x2120, symBinAddr: 0x10000485C, symSize: 0x28 }
  - { offsetInCU: 0x1D82E, offset: 0x1D82E, size: 0x8, addend: 0x0, symName: __Z12dateToStringRKNSt3__16chrono10time_pointINS0_12system_clockENS0_8durationIxNS_5ratioILl1ELl1000000EEEEEEE, symObjAddr: 0x217C, symBinAddr: 0x1000048B8, symSize: 0xEC }
  - { offsetInCU: 0x1D88C, offset: 0x1D88C, size: 0x8, addend: 0x0, symName: __ZNSt3__114basic_ofstreamIcNS_11char_traitsIcEEE5closeEv, symObjAddr: 0x2268, symBinAddr: 0x1000049A4, symSize: 0x58 }
  - { offsetInCU: 0x1D8B9, offset: 0x1D8B9, size: 0x8, addend: 0x0, symName: __ZNSt3__114basic_ofstreamIcNS_11char_traitsIcEEED1Ev, symObjAddr: 0x22C0, symBinAddr: 0x1000049FC, symSize: 0x40 }
  - { offsetInCU: 0x1D8E5, offset: 0x1D8E5, size: 0x8, addend: 0x0, symName: __Z18get_employee_by_idiNSt3__112basic_stringIcNS_11char_traitsIcEENS_9allocatorIcEEEE, symObjAddr: 0x2300, symBinAddr: 0x100004A3C, symSize: 0x1C0 }
  - { offsetInCU: 0x1D990, offset: 0x1D990, size: 0x8, addend: 0x0, symName: __Z17get_all_employeesv, symObjAddr: 0x24C0, symBinAddr: 0x100004BFC, symSize: 0x718 }
  - { offsetInCU: 0x1DA19, offset: 0x1DA19, size: 0x8, addend: 0x0, symName: __ZNSt3__16vectorI8employeeNS_9allocatorIS1_EEE5beginB7v160006Ev, symObjAddr: 0x2BD8, symBinAddr: 0x100005314, symSize: 0x30 }
  - { offsetInCU: 0x1DA41, offset: 0x1DA41, size: 0x8, addend: 0x0, symName: __ZNSt3__16vectorI8employeeNS_9allocatorIS1_EEE3endB7v160006Ev, symObjAddr: 0x2C08, symBinAddr: 0x100005344, symSize: 0x30 }
  - { offsetInCU: 0x1DA69, offset: 0x1DA69, size: 0x8, addend: 0x0, symName: __ZNKSt3__111__wrap_iterIP8employeeEdeB7v160006Ev, symObjAddr: 0x2C6C, symBinAddr: 0x1000053A8, symSize: 0x18 }
  - { offsetInCU: 0x1DA8F, offset: 0x1DA8F, size: 0x8, addend: 0x0, symName: __ZN8employeeC1ERKS_, symObjAddr: 0x2C84, symBinAddr: 0x1000053C0, symSize: 0x34 }
  - { offsetInCU: 0x1DAC4, offset: 0x1DAC4, size: 0x8, addend: 0x0, symName: __ZNSt3__111__wrap_iterIP8employeeEppB7v160006Ev, symObjAddr: 0x2CB8, symBinAddr: 0x1000053F4, symSize: 0x20 }
  - { offsetInCU: 0x1DAEA, offset: 0x1DAEA, size: 0x8, addend: 0x0, symName: __ZN8employeeD1Ev, symObjAddr: 0x2CD8, symBinAddr: 0x100005414, symSize: 0x2C }
  - { offsetInCU: 0x1DB16, offset: 0x1DB16, size: 0x8, addend: 0x0, symName: __ZNSt3__16vectorI8employeeNS_9allocatorIS1_EEED1B7v160006Ev, symObjAddr: 0x2D04, symBinAddr: 0x100005440, symSize: 0x2C }
  - { offsetInCU: 0x1DB40, offset: 0x1DB40, size: 0x8, addend: 0x0, symName: __ZNSt3__16vectorI8employeeNS_9allocatorIS1_EEEC1B7v160006Ev, symObjAddr: 0x2D30, symBinAddr: 0x10000546C, symSize: 0x2C }
  - { offsetInCU: 0x1DB6A, offset: 0x1DB6A, size: 0x8, addend: 0x0, symName: __ZNSt3__16vectorI8employeeNS_9allocatorIS1_EEE9push_backB7v160006ERKS1_, symObjAddr: 0x2D5C, symBinAddr: 0x100005498, symSize: 0x6C }
  - { offsetInCU: 0x1DBA7, offset: 0x1DBA7, size: 0x8, addend: 0x0, symName: __ZN8employeeaSEOS_, symObjAddr: 0x2DC8, symBinAddr: 0x100005504, symSize: 0x5C }
  - { offsetInCU: 0x1DBD7, offset: 0x1DBD7, size: 0x8, addend: 0x0, symName: __Z20write_into_employeesRNSt3__16vectorI8employeeNS_9allocatorIS1_EEEE, symObjAddr: 0x2E24, symBinAddr: 0x100005560, symSize: 0x548 }
  - { offsetInCU: 0x1DD01, offset: 0x1DD01, size: 0x8, addend: 0x0, symName: __ZNSt3__119basic_istringstreamIcNS_11char_traitsIcEENS_9allocatorIcEEEC1B7v160006ERKNS_12basic_stringIcS2_S4_EEj, symObjAddr: 0x336C, symBinAddr: 0x100005AA8, symSize: 0xFC }
  - { offsetInCU: 0x1DD4E, offset: 0x1DD4E, size: 0x8, addend: 0x0, symName: __ZNSt3__119basic_istringstreamIcNS_11char_traitsIcEENS_9allocatorIcEEED1Ev, symObjAddr: 0x3660, symBinAddr: 0x100005D9C, symSize: 0x40 }
  - { offsetInCU: 0x1DDAF, offset: 0x1DDAF, size: 0x8, addend: 0x0, symName: __ZNSt3__118basic_stringstreamIcNS_11char_traitsIcEENS_9allocatorIcEEEC1B7v160006Ev, symObjAddr: 0x36A0, symBinAddr: 0x100005DDC, symSize: 0x104 }
  - { offsetInCU: 0x1DDD9, offset: 0x1DDD9, size: 0x8, addend: 0x0, symName: __ZNKSt3__118basic_stringstreamIcNS_11char_traitsIcEENS_9allocatorIcEEE3strB7v160006Ev, symObjAddr: 0x39DC, symBinAddr: 0x100006118, symSize: 0x30 }
  - { offsetInCU: 0x1DE04, offset: 0x1DE04, size: 0x8, addend: 0x0, symName: __ZNSt3__118basic_stringstreamIcNS_11char_traitsIcEENS_9allocatorIcEEED1Ev, symObjAddr: 0x3A0C, symBinAddr: 0x100006148, symSize: 0x40 }
  - { offsetInCU: 0x1DE30, offset: 0x1DE30, size: 0x8, addend: 0x0, symName: __Z11daysBetweenNSt3__16chrono10time_pointINS0_12system_clockENS0_8durationIxNS_5ratioILl1ELl1000000EEEEEEES7_, symObjAddr: 0x3A4C, symBinAddr: 0x100006188, symSize: 0x53C }
  - { offsetInCU: 0x1DF82, offset: 0x1DF82, size: 0x8, addend: 0x0, symName: __ZNKSt3__112basic_stringIcNS_11char_traitsIcEENS_9allocatorIcEEE6substrB7v160006Emm, symObjAddr: 0x3FBC, symBinAddr: 0x1000066F8, symSize: 0x68 }
  - { offsetInCU: 0x1DFD0, offset: 0x1DFD0, size: 0x8, addend: 0x0, symName: '__ZZ11daysBetweenNSt3__16chrono10time_pointINS0_12system_clockENS0_8durationIxNS_5ratioILl1ELl1000000EEEEEEES7_ENK3$_0clEi', symObjAddr: 0x4024, symBinAddr: 0x100006760, symSize: 0x90 }
  - { offsetInCU: 0x1E008, offset: 0x1E008, size: 0x8, addend: 0x0, symName: __Z15write_into_carsRNSt3__16vectorI3carNS_9allocatorIS1_EEEE, symObjAddr: 0x40B4, symBinAddr: 0x1000067F0, symSize: 0x294 }
  - { offsetInCU: 0x1E091, offset: 0x1E091, size: 0x8, addend: 0x0, symName: __Z24get_all_customer_recordsv, symObjAddr: 0x4348, symBinAddr: 0x100006A84, symSize: 0x52C }
  - { offsetInCU: 0x1E102, offset: 0x1E102, size: 0x8, addend: 0x0, symName: __ZNSt3__16vectorI6recordNS_9allocatorIS1_EEEC1B7v160006Ev, symObjAddr: 0x4894, symBinAddr: 0x100006FD0, symSize: 0x2C }
  - { offsetInCU: 0x1E12C, offset: 0x1E12C, size: 0x8, addend: 0x0, symName: __ZNSt3__16vectorI6recordNS_9allocatorIS1_EEE9push_backB7v160006ERKS1_, symObjAddr: 0x48C0, symBinAddr: 0x100006FFC, symSize: 0x6C }
  - { offsetInCU: 0x1E169, offset: 0x1E169, size: 0x8, addend: 0x0, symName: __ZN6recordaSEOS_, symObjAddr: 0x492C, symBinAddr: 0x100007068, symSize: 0x7C }
  - { offsetInCU: 0x1E19A, offset: 0x1E19A, size: 0x8, addend: 0x0, symName: __ZN6recordD1Ev, symObjAddr: 0x49A8, symBinAddr: 0x1000070E4, symSize: 0x2C }
  - { offsetInCU: 0x1E1C6, offset: 0x1E1C6, size: 0x8, addend: 0x0, symName: __ZNSt3__114basic_ifstreamIcNS_11char_traitsIcEEE5closeEv, symObjAddr: 0x49D4, symBinAddr: 0x100007110, symSize: 0x58 }
  - { offsetInCU: 0x1E1EE, offset: 0x1E1EE, size: 0x8, addend: 0x0, symName: __ZNSt3__16vectorI6recordNS_9allocatorIS1_EEED1B7v160006Ev, symObjAddr: 0x4A2C, symBinAddr: 0x100007168, symSize: 0x2C }
  - { offsetInCU: 0x1E217, offset: 0x1E217, size: 0x8, addend: 0x0, symName: __Z27write_into_customer_recordsRNSt3__16vectorI6recordNS_9allocatorIS1_EEEE, symObjAddr: 0x4A58, symBinAddr: 0x100007194, symSize: 0x3F4 }
  - { offsetInCU: 0x1E2A1, offset: 0x1E2A1, size: 0x8, addend: 0x0, symName: __ZNSt3__16vectorI6recordNS_9allocatorIS1_EEE5beginB7v160006Ev, symObjAddr: 0x4E4C, symBinAddr: 0x100007588, symSize: 0x30 }
  - { offsetInCU: 0x1E2C9, offset: 0x1E2C9, size: 0x8, addend: 0x0, symName: __ZNSt3__16vectorI6recordNS_9allocatorIS1_EEE3endB7v160006Ev, symObjAddr: 0x4E7C, symBinAddr: 0x1000075B8, symSize: 0x30 }
  - { offsetInCU: 0x1E2F1, offset: 0x1E2F1, size: 0x8, addend: 0x0, symName: __ZNKSt3__111__wrap_iterIP6recordEdeB7v160006Ev, symObjAddr: 0x4EE0, symBinAddr: 0x10000761C, symSize: 0x18 }
  - { offsetInCU: 0x1E317, offset: 0x1E317, size: 0x8, addend: 0x0, symName: __ZNSt3__111__wrap_iterIP6recordEppB7v160006Ev, symObjAddr: 0x4EF8, symBinAddr: 0x100007634, symSize: 0x20 }
  - { offsetInCU: 0x1E33C, offset: 0x1E33C, size: 0x8, addend: 0x0, symName: __Z24get_all_employee_recordsv, symObjAddr: 0x4F18, symBinAddr: 0x100007654, symSize: 0x504 }
  - { offsetInCU: 0x1E3AC, offset: 0x1E3AC, size: 0x8, addend: 0x0, symName: __Z27write_into_employee_recordsRNSt3__16vectorI6recordNS_9allocatorIS1_EEEE, symObjAddr: 0x543C, symBinAddr: 0x100007B78, symSize: 0x3F4 }
  - { offsetInCU: 0x1E435, offset: 0x1E435, size: 0x8, addend: 0x0, symName: __Z10get_new_idi, symObjAddr: 0x5830, symBinAddr: 0x100007F6C, symSize: 0x3C8 }
  - { offsetInCU: 0x1E4E4, offset: 0x1E4E4, size: 0x8, addend: 0x0, symName: __Z16get_record_by_idRNSt3__16vectorI6recordNS_9allocatorIS1_EEEEii, symObjAddr: 0x5BF8, symBinAddr: 0x100008334, symSize: 0xC8 }
  - { offsetInCU: 0x1E54E, offset: 0x1E54E, size: 0x8, addend: 0x0, symName: __ZNKSt3__16vectorI6recordNS_9allocatorIS1_EEE4sizeB7v160006Ev, symObjAddr: 0x5CC0, symBinAddr: 0x1000083FC, symSize: 0x28 }
  - { offsetInCU: 0x1E574, offset: 0x1E574, size: 0x8, addend: 0x0, symName: __ZNSt3__16vectorI6recordNS_9allocatorIS1_EEEixB7v160006Em, symObjAddr: 0x5CE8, symBinAddr: 0x100008424, symSize: 0x2C }
  - { offsetInCU: 0x1E5AA, offset: 0x1E5AA, size: 0x8, addend: 0x0, symName: __Z11startSystemv, symObjAddr: 0x5D14, symBinAddr: 0x100008450, symSize: 0x740 }
  - { offsetInCU: 0x1E635, offset: 0x1E635, size: 0x8, addend: 0x0, symName: __ZNSt3__19basic_iosIcNS_11char_traitsIcEEE5clearB7v160006Ej, symObjAddr: 0x6454, symBinAddr: 0x100008B90, symSize: 0x2C }
  - { offsetInCU: 0x1E66A, offset: 0x1E66A, size: 0x8, addend: 0x0, symName: __ZNSt3__114numeric_limitsIlE3maxB7v160006Ev, symObjAddr: 0x6480, symBinAddr: 0x100008BBC, symSize: 0x14 }
  - { offsetInCU: 0x1E7A7, offset: 0x1E7A7, size: 0x8, addend: 0x0, symName: __ZN7managerD1Ev, symObjAddr: 0x68E4, symBinAddr: 0x100009020, symSize: 0x2C }
  - { offsetInCU: 0x1E7D3, offset: 0x1E7D3, size: 0x8, addend: 0x0, symName: _main, symObjAddr: 0x6944, symBinAddr: 0x100009080, symSize: 0x1C0 }
  - { offsetInCU: 0x1E80C, offset: 0x1E80C, size: 0x8, addend: 0x0, symName: __ZNKSt3__111__wrap_iterIP3carE4baseB7v160006Ev, symObjAddr: 0x6B4C, symBinAddr: 0x100009288, symSize: 0x18 }
  - { offsetInCU: 0x1E832, offset: 0x1E832, size: 0x8, addend: 0x0, symName: __ZNKSt3__111__wrap_iterIP8customerE4baseB7v160006Ev, symObjAddr: 0x6BAC, symBinAddr: 0x1000092E8, symSize: 0x18 }
  - { offsetInCU: 0x1E858, offset: 0x1E858, size: 0x8, addend: 0x0, symName: __ZN8customerC2ERKS_, symObjAddr: 0x6BC4, symBinAddr: 0x100009300, symSize: 0x84 }
  - { offsetInCU: 0x1E897, offset: 0x1E897, size: 0x8, addend: 0x0, symName: __ZN4userC2ERKS_, symObjAddr: 0x6C48, symBinAddr: 0x100009384, symSize: 0x7C }
  - { offsetInCU: 0x1E8CC, offset: 0x1E8CC, size: 0x8, addend: 0x0, symName: __ZNSt3__16vectorI3carNS_9allocatorIS1_EEEC1ERKS4_, symObjAddr: 0x6CC4, symBinAddr: 0x100009400, symSize: 0x34 }
  - { offsetInCU: 0x1E907, offset: 0x1E907, size: 0x8, addend: 0x0, symName: __ZN4userD2Ev, symObjAddr: 0x6CF8, symBinAddr: 0x100009434, symSize: 0x38 }
  - { offsetInCU: 0x1E933, offset: 0x1E933, size: 0x8, addend: 0x0, symName: __ZNSt3__16vectorI3carNS_9allocatorIS1_EEEC2ERKS4_, symObjAddr: 0x6D30, symBinAddr: 0x10000946C, symSize: 0x114 }
  - { offsetInCU: 0x1E99C, offset: 0x1E99C, size: 0x8, addend: 0x0, symName: __ZNSt3__116allocator_traitsINS_9allocatorI3carEEE37select_on_container_copy_constructionB7v160006IS3_vvEES3_RKS3_, symObjAddr: 0x6E44, symBinAddr: 0x100009580, symSize: 0x10 }
  - { offsetInCU: 0x1E9CB, offset: 0x1E9CB, size: 0x8, addend: 0x0, symName: __ZNKSt3__16vectorI3carNS_9allocatorIS1_EEE7__allocB7v160006Ev, symObjAddr: 0x6E54, symBinAddr: 0x100009590, symSize: 0x28 }
  - { offsetInCU: 0x1E9FD, offset: 0x1E9FD, size: 0x8, addend: 0x0, symName: __ZNSt3__117__compressed_pairIP3carNS_9allocatorIS1_EEEC1B7v160006IDnS4_EEOT_OT0_, symObjAddr: 0x6E7C, symBinAddr: 0x1000095B8, symSize: 0x3C }
  - { offsetInCU: 0x1EA55, offset: 0x1EA55, size: 0x8, addend: 0x0, symName: __ZNSt3__16vectorI3carNS_9allocatorIS1_EEE16__destroy_vectorC1ERS4_, symObjAddr: 0x6EF8, symBinAddr: 0x100009634, symSize: 0x34 }
  - { offsetInCU: 0x1EA8E, offset: 0x1EA8E, size: 0x8, addend: 0x0, symName: __ZNSt3__16vectorI3carNS_9allocatorIS1_EEE11__vallocateB7v160006Em, symObjAddr: 0x6F3C, symBinAddr: 0x100009678, symSize: 0xB4 }
  - { offsetInCU: 0x1EAD2, offset: 0x1EAD2, size: 0x8, addend: 0x0, symName: __ZNSt3__16vectorI3carNS_9allocatorIS1_EEE18__construct_at_endIPS1_Li0EEEvT_S7_m, symObjAddr: 0x6FF0, symBinAddr: 0x10000972C, symSize: 0x8C }
  - { offsetInCU: 0x1EB45, offset: 0x1EB45, size: 0x8, addend: 0x0, symName: __ZNSt3__128__exception_guard_exceptionsINS_6vectorI3carNS_9allocatorIS2_EEE16__destroy_vectorEE10__completeB7v160006Ev, symObjAddr: 0x707C, symBinAddr: 0x1000097B8, symSize: 0x1C }
  - { offsetInCU: 0x1EB6B, offset: 0x1EB6B, size: 0x8, addend: 0x0, symName: __ZNSt3__128__exception_guard_exceptionsINS_6vectorI3carNS_9allocatorIS2_EEE16__destroy_vectorEED1B7v160006Ev, symObjAddr: 0x7098, symBinAddr: 0x1000097D4, symSize: 0x2C }
  - { offsetInCU: 0x1EB95, offset: 0x1EB95, size: 0x8, addend: 0x0, symName: __ZNKSt3__117__compressed_pairIP3carNS_9allocatorIS1_EEE6secondB7v160006Ev, symObjAddr: 0x70C4, symBinAddr: 0x100009800, symSize: 0x24 }
  - { offsetInCU: 0x1EBBB, offset: 0x1EBBB, size: 0x8, addend: 0x0, symName: __ZNKSt3__122__compressed_pair_elemINS_9allocatorI3carEELi1ELb1EE5__getB7v160006Ev, symObjAddr: 0x70E8, symBinAddr: 0x100009824, symSize: 0x14 }
  - { offsetInCU: 0x1EBE1, offset: 0x1EBE1, size: 0x8, addend: 0x0, symName: __ZNSt3__117__compressed_pairIP3carNS_9allocatorIS1_EEEC2B7v160006IDnS4_EEOT_OT0_, symObjAddr: 0x70FC, symBinAddr: 0x100009838, symSize: 0x44 }
  - { offsetInCU: 0x1EC39, offset: 0x1EC39, size: 0x8, addend: 0x0, symName: __ZNSt3__122__compressed_pair_elemIP3carLi0ELb0EEC2B7v160006IDnvEEOT_, symObjAddr: 0x7140, symBinAddr: 0x10000987C, symSize: 0x1C }
  - { offsetInCU: 0x1EC7B, offset: 0x1EC7B, size: 0x8, addend: 0x0, symName: __ZNSt3__122__compressed_pair_elemINS_9allocatorI3carEELi1ELb1EEC2B7v160006IS3_vEEOT_, symObjAddr: 0x715C, symBinAddr: 0x100009898, symSize: 0x18 }
  - { offsetInCU: 0x1ECBD, offset: 0x1ECBD, size: 0x8, addend: 0x0, symName: __ZNSt3__128__exception_guard_exceptionsINS_6vectorI3carNS_9allocatorIS2_EEE16__destroy_vectorEEC1B7v160006ES6_, symObjAddr: 0x7174, symBinAddr: 0x1000098B0, symSize: 0x34 }
  - { offsetInCU: 0x1ECF5, offset: 0x1ECF5, size: 0x8, addend: 0x0, symName: __ZNSt3__128__exception_guard_exceptionsINS_6vectorI3carNS_9allocatorIS2_EEE16__destroy_vectorEEC2B7v160006ES6_, symObjAddr: 0x71A8, symBinAddr: 0x1000098E4, symSize: 0x24 }
  - { offsetInCU: 0x1ED2D, offset: 0x1ED2D, size: 0x8, addend: 0x0, symName: __ZNSt3__16vectorI3carNS_9allocatorIS1_EEE16__destroy_vectorC2ERS4_, symObjAddr: 0x71CC, symBinAddr: 0x100009908, symSize: 0x20 }
  - { offsetInCU: 0x1ED66, offset: 0x1ED66, size: 0x8, addend: 0x0, symName: __ZNKSt3__16vectorI3carNS_9allocatorIS1_EEE8max_sizeEv, symObjAddr: 0x71EC, symBinAddr: 0x100009928, symSize: 0x60 }
  - { offsetInCU: 0x1ED8E, offset: 0x1ED8E, size: 0x8, addend: 0x0, symName: __ZNKSt3__16vectorI3carNS_9allocatorIS1_EEE20__throw_length_errorB7v160006Ev, symObjAddr: 0x724C, symBinAddr: 0x100009988, symSize: 0x1C }
  - { offsetInCU: 0x1EDB4, offset: 0x1EDB4, size: 0x8, addend: 0x0, symName: __ZNSt3__16vectorI3carNS_9allocatorIS1_EEE7__allocB7v160006Ev, symObjAddr: 0x72A8, symBinAddr: 0x1000099E4, symSize: 0x28 }
  - { offsetInCU: 0x1EDDA, offset: 0x1EDDA, size: 0x8, addend: 0x0, symName: __ZNSt3__16vectorI3carNS_9allocatorIS1_EEE9__end_capB7v160006Ev, symObjAddr: 0x72D0, symBinAddr: 0x100009A0C, symSize: 0x28 }
  - { offsetInCU: 0x1EE00, offset: 0x1EE00, size: 0x8, addend: 0x0, symName: __ZNKSt3__16vectorI3carNS_9allocatorIS1_EEE14__annotate_newB7v160006Em, symObjAddr: 0x72F8, symBinAddr: 0x100009A34, symSize: 0xC8 }
  - { offsetInCU: 0x1EE35, offset: 0x1EE35, size: 0x8, addend: 0x0, symName: __ZNSt3__116allocator_traitsINS_9allocatorI3carEEE8max_sizeB7v160006IS3_vEEmRKS3_, symObjAddr: 0x73EC, symBinAddr: 0x100009B28, symSize: 0x24 }
  - { offsetInCU: 0x1EE77, offset: 0x1EE77, size: 0x8, addend: 0x0, symName: __ZNKSt3__16__lessImmEclB7v160006ERKmS3_, symObjAddr: 0x7470, symBinAddr: 0x100009BAC, symSize: 0x34 }
  - { offsetInCU: 0x1EEB9, offset: 0x1EEB9, size: 0x8, addend: 0x0, symName: __ZNKSt3__19allocatorI3carE8max_sizeB7v160006Ev, symObjAddr: 0x74A4, symBinAddr: 0x100009BE0, symSize: 0x18 }
  - { offsetInCU: 0x1EEDF, offset: 0x1EEDF, size: 0x8, addend: 0x0, symName: __ZNSt12length_errorC1B7v160006EPKc, symObjAddr: 0x7520, symBinAddr: 0x100009C5C, symSize: 0x34 }
  - { offsetInCU: 0x1EF17, offset: 0x1EF17, size: 0x8, addend: 0x0, symName: __ZNSt12length_errorC2B7v160006EPKc, symObjAddr: 0x7554, symBinAddr: 0x100009C90, symSize: 0x4C }
  - { offsetInCU: 0x1EF4F, offset: 0x1EF4F, size: 0x8, addend: 0x0, symName: __ZNSt3__19allocatorI3carE8allocateB7v160006Em, symObjAddr: 0x75A0, symBinAddr: 0x100009CDC, symSize: 0x5C }
  - { offsetInCU: 0x1EF83, offset: 0x1EF83, size: 0x8, addend: 0x0, symName: __ZNSt3__117__compressed_pairIP3carNS_9allocatorIS1_EEE6secondB7v160006Ev, symObjAddr: 0x7700, symBinAddr: 0x100009E3C, symSize: 0x24 }
  - { offsetInCU: 0x1EFA9, offset: 0x1EFA9, size: 0x8, addend: 0x0, symName: __ZNSt3__122__compressed_pair_elemINS_9allocatorI3carEELi1ELb1EE5__getB7v160006Ev, symObjAddr: 0x7724, symBinAddr: 0x100009E60, symSize: 0x14 }
  - { offsetInCU: 0x1EFCF, offset: 0x1EFCF, size: 0x8, addend: 0x0, symName: __ZNSt3__117__compressed_pairIP3carNS_9allocatorIS1_EEE5firstB7v160006Ev, symObjAddr: 0x7738, symBinAddr: 0x100009E74, symSize: 0x24 }
  - { offsetInCU: 0x1EFF5, offset: 0x1EFF5, size: 0x8, addend: 0x0, symName: __ZNSt3__122__compressed_pair_elemIP3carLi0ELb0EE5__getB7v160006Ev, symObjAddr: 0x775C, symBinAddr: 0x100009E98, symSize: 0x14 }
  - { offsetInCU: 0x1F01B, offset: 0x1F01B, size: 0x8, addend: 0x0, symName: __ZNKSt3__16vectorI3carNS_9allocatorIS1_EEE31__annotate_contiguous_containerB7v160006EPKvS6_S6_S6_, symObjAddr: 0x7770, symBinAddr: 0x100009EAC, symSize: 0x20 }
  - { offsetInCU: 0x1F071, offset: 0x1F071, size: 0x8, addend: 0x0, symName: __ZNKSt3__16vectorI3carNS_9allocatorIS1_EEE4dataB7v160006Ev, symObjAddr: 0x7790, symBinAddr: 0x100009ECC, symSize: 0x28 }
  - { offsetInCU: 0x1F097, offset: 0x1F097, size: 0x8, addend: 0x0, symName: __ZNKSt3__16vectorI3carNS_9allocatorIS1_EEE8capacityB7v160006Ev, symObjAddr: 0x77B8, symBinAddr: 0x100009EF4, symSize: 0x40 }
  - { offsetInCU: 0x1F0BD, offset: 0x1F0BD, size: 0x8, addend: 0x0, symName: __ZNKSt3__16vectorI3carNS_9allocatorIS1_EEE9__end_capB7v160006Ev, symObjAddr: 0x780C, symBinAddr: 0x100009F48, symSize: 0x28 }
  - { offsetInCU: 0x1F0E3, offset: 0x1F0E3, size: 0x8, addend: 0x0, symName: __ZNKSt3__117__compressed_pairIP3carNS_9allocatorIS1_EEE5firstB7v160006Ev, symObjAddr: 0x7834, symBinAddr: 0x100009F70, symSize: 0x24 }
  - { offsetInCU: 0x1F109, offset: 0x1F109, size: 0x8, addend: 0x0, symName: __ZNKSt3__122__compressed_pair_elemIP3carLi0ELb0EE5__getB7v160006Ev, symObjAddr: 0x7858, symBinAddr: 0x100009F94, symSize: 0x14 }
  - { offsetInCU: 0x1F148, offset: 0x1F148, size: 0x8, addend: 0x0, symName: __ZNSt3__16vectorI3carNS_9allocatorIS1_EEE21_ConstructTransactionC1B7v160006ERS4_m, symObjAddr: 0x786C, symBinAddr: 0x100009FA8, symSize: 0x3C }
  - { offsetInCU: 0x1F190, offset: 0x1F190, size: 0x8, addend: 0x0, symName: __ZNSt3__16vectorI3carNS_9allocatorIS1_EEE21_ConstructTransactionD1B7v160006Ev, symObjAddr: 0x799C, symBinAddr: 0x10000A0D8, symSize: 0x2C }
  - { offsetInCU: 0x1F1BA, offset: 0x1F1BA, size: 0x8, addend: 0x0, symName: __ZNSt3__16vectorI3carNS_9allocatorIS1_EEE21_ConstructTransactionC2B7v160006ERS4_m, symObjAddr: 0x79C8, symBinAddr: 0x10000A104, symSize: 0x4C }
  - { offsetInCU: 0x1F202, offset: 0x1F202, size: 0x8, addend: 0x0, symName: __ZNSt3__129_AllocatorDestroyRangeReverseINS_9allocatorI3carEEPS2_EC1B7v160006ERS3_RS4_S7_, symObjAddr: 0x7A60, symBinAddr: 0x10000A19C, symSize: 0x44 }
  - { offsetInCU: 0x1F259, offset: 0x1F259, size: 0x8, addend: 0x0, symName: __ZNSt3__116allocator_traitsINS_9allocatorI3carEEE9constructB7v160006IS2_JRS2_EvEEvRS3_PT_DpOT0_, symObjAddr: 0x7AA4, symBinAddr: 0x10000A1E0, symSize: 0x34 }
  - { offsetInCU: 0x1F2B0, offset: 0x1F2B0, size: 0x8, addend: 0x0, symName: __ZNSt3__128__exception_guard_exceptionsINS_29_AllocatorDestroyRangeReverseINS_9allocatorI3carEEPS3_EEE10__completeB7v160006Ev, symObjAddr: 0x7AD8, symBinAddr: 0x10000A214, symSize: 0x1C }
  - { offsetInCU: 0x1F2D6, offset: 0x1F2D6, size: 0x8, addend: 0x0, symName: __ZNSt3__128__exception_guard_exceptionsINS_29_AllocatorDestroyRangeReverseINS_9allocatorI3carEEPS3_EEED1B7v160006Ev, symObjAddr: 0x7AF4, symBinAddr: 0x10000A230, symSize: 0x2C }
  - { offsetInCU: 0x1F300, offset: 0x1F300, size: 0x8, addend: 0x0, symName: __ZNSt3__128__exception_guard_exceptionsINS_29_AllocatorDestroyRangeReverseINS_9allocatorI3carEEPS3_EEEC1B7v160006ES6_, symObjAddr: 0x7B20, symBinAddr: 0x10000A25C, symSize: 0x34 }
  - { offsetInCU: 0x1F339, offset: 0x1F339, size: 0x8, addend: 0x0, symName: __ZNSt3__128__exception_guard_exceptionsINS_29_AllocatorDestroyRangeReverseINS_9allocatorI3carEEPS3_EEEC2B7v160006ES6_, symObjAddr: 0x7B54, symBinAddr: 0x10000A290, symSize: 0x30 }
  - { offsetInCU: 0x1F372, offset: 0x1F372, size: 0x8, addend: 0x0, symName: __ZNSt3__129_AllocatorDestroyRangeReverseINS_9allocatorI3carEEPS2_EC2B7v160006ERS3_RS4_S7_, symObjAddr: 0x7B84, symBinAddr: 0x10000A2C0, symSize: 0x38 }
  - { offsetInCU: 0x1F3C9, offset: 0x1F3C9, size: 0x8, addend: 0x0, symName: __ZNSt3__19allocatorI3carE9constructB7v160006IS1_JRS1_EEEvPT_DpOT0_, symObjAddr: 0x7BBC, symBinAddr: 0x10000A2F8, symSize: 0x30 }
  - { offsetInCU: 0x1F41F, offset: 0x1F41F, size: 0x8, addend: 0x0, symName: __ZN3carC1ERKS_, symObjAddr: 0x7BEC, symBinAddr: 0x10000A328, symSize: 0x34 }
  - { offsetInCU: 0x1F454, offset: 0x1F454, size: 0x8, addend: 0x0, symName: __ZN3carC2ERKS_, symObjAddr: 0x7C20, symBinAddr: 0x10000A35C, symSize: 0x48 }
  - { offsetInCU: 0x1F489, offset: 0x1F489, size: 0x8, addend: 0x0, symName: __ZNSt3__128__exception_guard_exceptionsINS_29_AllocatorDestroyRangeReverseINS_9allocatorI3carEEPS3_EEED2B7v160006Ev, symObjAddr: 0x7C68, symBinAddr: 0x10000A3A4, symSize: 0x50 }
  - { offsetInCU: 0x1F4B3, offset: 0x1F4B3, size: 0x8, addend: 0x0, symName: __ZNKSt3__129_AllocatorDestroyRangeReverseINS_9allocatorI3carEEPS2_EclB7v160006Ev, symObjAddr: 0x7CB8, symBinAddr: 0x10000A3F4, symSize: 0x68 }
  - { offsetInCU: 0x1F4D9, offset: 0x1F4D9, size: 0x8, addend: 0x0, symName: __ZNSt3__116reverse_iteratorIP3carEC1B7v160006ES2_, symObjAddr: 0x7D90, symBinAddr: 0x10000A4CC, symSize: 0x34 }
  - { offsetInCU: 0x1F511, offset: 0x1F511, size: 0x8, addend: 0x0, symName: __ZNSt3__116allocator_traitsINS_9allocatorI3carEEE7destroyB7v160006IS2_vEEvRS3_PT_, symObjAddr: 0x7E0C, symBinAddr: 0x10000A548, symSize: 0x2C }
  - { offsetInCU: 0x1F54E, offset: 0x1F54E, size: 0x8, addend: 0x0, symName: __ZNSt3__116reverse_iteratorIP3carEppB7v160006Ev, symObjAddr: 0x7E5C, symBinAddr: 0x10000A598, symSize: 0x20 }
  - { offsetInCU: 0x1F574, offset: 0x1F574, size: 0x8, addend: 0x0, symName: __ZNKSt3__116reverse_iteratorIP3carE4baseB7v160006Ev, symObjAddr: 0x7E7C, symBinAddr: 0x10000A5B8, symSize: 0x18 }
  - { offsetInCU: 0x1F59A, offset: 0x1F59A, size: 0x8, addend: 0x0, symName: __ZNSt3__19allocatorI3carE7destroyB7v160006EPS1_, symObjAddr: 0x7E94, symBinAddr: 0x10000A5D0, symSize: 0x28 }
  - { offsetInCU: 0x1F5D3, offset: 0x1F5D3, size: 0x8, addend: 0x0, symName: __ZNSt3__119__to_address_helperINS_16reverse_iteratorIP3carEEvE6__callB7v160006ERKS4_, symObjAddr: 0x7EBC, symBinAddr: 0x10000A5F8, symSize: 0x38 }
  - { offsetInCU: 0x1F5F6, offset: 0x1F5F6, size: 0x8, addend: 0x0, symName: __ZNKSt3__116reverse_iteratorIP3carEptB7v160006Ev, symObjAddr: 0x7EF4, symBinAddr: 0x10000A630, symSize: 0x24 }
  - { offsetInCU: 0x1F61C, offset: 0x1F61C, size: 0x8, addend: 0x0, symName: __ZNKSt3__116reverse_iteratorIP3carEdeB7v160006Ev, symObjAddr: 0x7F18, symBinAddr: 0x10000A654, symSize: 0x28 }
  - { offsetInCU: 0x1F650, offset: 0x1F650, size: 0x8, addend: 0x0, symName: __ZNSt3__116reverse_iteratorIP3carEC2B7v160006ES2_, symObjAddr: 0x7F40, symBinAddr: 0x10000A67C, symSize: 0x28 }
  - { offsetInCU: 0x1F688, offset: 0x1F688, size: 0x8, addend: 0x0, symName: __ZNSt3__16vectorI3carNS_9allocatorIS1_EEE21_ConstructTransactionD2B7v160006Ev, symObjAddr: 0x7F68, symBinAddr: 0x10000A6A4, symSize: 0x20 }
  - { offsetInCU: 0x1F6B2, offset: 0x1F6B2, size: 0x8, addend: 0x0, symName: __ZNSt3__128__exception_guard_exceptionsINS_6vectorI3carNS_9allocatorIS2_EEE16__destroy_vectorEED2B7v160006Ev, symObjAddr: 0x7F88, symBinAddr: 0x10000A6C4, symSize: 0x50 }
  - { offsetInCU: 0x1F6DC, offset: 0x1F6DC, size: 0x8, addend: 0x0, symName: __ZNSt3__16vectorI3carNS_9allocatorIS1_EEE16__destroy_vectorclB7v160006Ev, symObjAddr: 0x7FD8, symBinAddr: 0x10000A714, symSize: 0x9C }
  - { offsetInCU: 0x1F702, offset: 0x1F702, size: 0x8, addend: 0x0, symName: __ZNKSt3__16vectorI3carNS_9allocatorIS1_EEE17__annotate_deleteB7v160006Ev, symObjAddr: 0x8074, symBinAddr: 0x10000A7B0, symSize: 0xD4 }
  - { offsetInCU: 0x1F728, offset: 0x1F728, size: 0x8, addend: 0x0, symName: __ZNSt3__16vectorI3carNS_9allocatorIS1_EEE7__clearB7v160006Ev, symObjAddr: 0x8158, symBinAddr: 0x10000A894, symSize: 0x28 }
  - { offsetInCU: 0x1F74E, offset: 0x1F74E, size: 0x8, addend: 0x0, symName: __ZNSt3__116allocator_traitsINS_9allocatorI3carEEE10deallocateB7v160006ERS3_PS2_m, symObjAddr: 0x8180, symBinAddr: 0x10000A8BC, symSize: 0x34 }
  - { offsetInCU: 0x1F790, offset: 0x1F790, size: 0x8, addend: 0x0, symName: __ZNSt3__16vectorI3carNS_9allocatorIS1_EEE22__base_destruct_at_endB7v160006EPS1_, symObjAddr: 0x81B4, symBinAddr: 0x10000A8F0, symSize: 0x8C }
  - { offsetInCU: 0x1F7D4, offset: 0x1F7D4, size: 0x8, addend: 0x0, symName: __ZNSt3__19allocatorI3carE10deallocateB7v160006EPS1_m, symObjAddr: 0x8240, symBinAddr: 0x10000A97C, symSize: 0x44 }
  - { offsetInCU: 0x1F816, offset: 0x1F816, size: 0x8, addend: 0x0, symName: __ZN8customerD2Ev, symObjAddr: 0x838C, symBinAddr: 0x10000AAC8, symSize: 0x38 }
  - { offsetInCU: 0x1F84D, offset: 0x1F84D, size: 0x8, addend: 0x0, symName: __ZN4useraSEOS_, symObjAddr: 0x83C4, symBinAddr: 0x10000AB00, symSize: 0x54 }
  - { offsetInCU: 0x1F87E, offset: 0x1F87E, size: 0x8, addend: 0x0, symName: __ZNSt3__16vectorI3carNS_9allocatorIS1_EEEaSB7v160006EOS4_, symObjAddr: 0x8418, symBinAddr: 0x10000AB54, symSize: 0x34 }
  - { offsetInCU: 0x1F8B5, offset: 0x1F8B5, size: 0x8, addend: 0x0, symName: __ZNSt3__112basic_stringIcNS_11char_traitsIcEENS_9allocatorIcEEEaSB7v160006EOS5_, symObjAddr: 0x844C, symBinAddr: 0x10000AB88, symSize: 0x34 }
  - { offsetInCU: 0x1F8EA, offset: 0x1F8EA, size: 0x8, addend: 0x0, symName: __ZNSt3__112basic_stringIcNS_11char_traitsIcEENS_9allocatorIcEEE13__move_assignB7v160006ERS5_NS_17integral_constantIbLb1EEE, symObjAddr: 0x8480, symBinAddr: 0x10000ABBC, symSize: 0xC8 }
  - { offsetInCU: 0x1F92D, offset: 0x1F92D, size: 0x8, addend: 0x0, symName: __ZNKSt3__112basic_stringIcNS_11char_traitsIcEENS_9allocatorIcEEE9__is_longB7v160006Ev, symObjAddr: 0x8548, symBinAddr: 0x10000AC84, symSize: 0x38 }
  - { offsetInCU: 0x1F953, offset: 0x1F953, size: 0x8, addend: 0x0, symName: __ZNSt3__116allocator_traitsINS_9allocatorIcEEE10deallocateB7v160006ERS2_Pcm, symObjAddr: 0x8580, symBinAddr: 0x10000ACBC, symSize: 0x34 }
  - { offsetInCU: 0x1F995, offset: 0x1F995, size: 0x8, addend: 0x0, symName: __ZNSt3__112basic_stringIcNS_11char_traitsIcEENS_9allocatorIcEEE7__allocB7v160006Ev, symObjAddr: 0x85B4, symBinAddr: 0x10000ACF0, symSize: 0x24 }
  - { offsetInCU: 0x1F9BB, offset: 0x1F9BB, size: 0x8, addend: 0x0, symName: __ZNSt3__112basic_stringIcNS_11char_traitsIcEENS_9allocatorIcEEE18__get_long_pointerB7v160006Ev, symObjAddr: 0x85D8, symBinAddr: 0x10000AD14, symSize: 0x28 }
  - { offsetInCU: 0x1F9E1, offset: 0x1F9E1, size: 0x8, addend: 0x0, symName: __ZNKSt3__112basic_stringIcNS_11char_traitsIcEENS_9allocatorIcEEE14__get_long_capB7v160006Ev, symObjAddr: 0x8600, symBinAddr: 0x10000AD3C, symSize: 0x30 }
  - { offsetInCU: 0x1FA07, offset: 0x1FA07, size: 0x8, addend: 0x0, symName: __ZNSt3__112basic_stringIcNS_11char_traitsIcEENS_9allocatorIcEEE19__move_assign_allocB7v160006ERS5_, symObjAddr: 0x8630, symBinAddr: 0x10000AD6C, symSize: 0x2C }
  - { offsetInCU: 0x1FA3C, offset: 0x1FA3C, size: 0x8, addend: 0x0, symName: __ZNSt3__117__compressed_pairINS_12basic_stringIcNS_11char_traitsIcEENS_9allocatorIcEEE5__repES5_E5firstB7v160006Ev, symObjAddr: 0x865C, symBinAddr: 0x10000AD98, symSize: 0x24 }
  - { offsetInCU: 0x1FA62, offset: 0x1FA62, size: 0x8, addend: 0x0, symName: __ZNSt3__112basic_stringIcNS_11char_traitsIcEENS_9allocatorIcEEE16__set_short_sizeB7v160006Em, symObjAddr: 0x8680, symBinAddr: 0x10000ADBC, symSize: 0x78 }
  - { offsetInCU: 0x1FA97, offset: 0x1FA97, size: 0x8, addend: 0x0, symName: __ZNSt3__111char_traitsIcE6assignERcRKc, symObjAddr: 0x86F8, symBinAddr: 0x10000AE34, symSize: 0x24 }
  - { offsetInCU: 0x1FAC8, offset: 0x1FAC8, size: 0x8, addend: 0x0, symName: __ZNSt3__112basic_stringIcNS_11char_traitsIcEENS_9allocatorIcEEE19__get_short_pointerB7v160006Ev, symObjAddr: 0x871C, symBinAddr: 0x10000AE58, symSize: 0x28 }
  - { offsetInCU: 0x1FAEE, offset: 0x1FAEE, size: 0x8, addend: 0x0, symName: __ZNKSt3__117__compressed_pairINS_12basic_stringIcNS_11char_traitsIcEENS_9allocatorIcEEE5__repES5_E5firstB7v160006Ev, symObjAddr: 0x8744, symBinAddr: 0x10000AE80, symSize: 0x24 }
  - { offsetInCU: 0x1FB14, offset: 0x1FB14, size: 0x8, addend: 0x0, symName: __ZNKSt3__122__compressed_pair_elemINS_12basic_stringIcNS_11char_traitsIcEENS_9allocatorIcEEE5__repELi0ELb0EE5__getB7v160006Ev, symObjAddr: 0x8768, symBinAddr: 0x10000AEA4, symSize: 0x14 }
  - { offsetInCU: 0x1FB3A, offset: 0x1FB3A, size: 0x8, addend: 0x0, symName: __ZNSt3__19allocatorIcE10deallocateB7v160006EPcm, symObjAddr: 0x877C, symBinAddr: 0x10000AEB8, symSize: 0x40 }
  - { offsetInCU: 0x1FB7C, offset: 0x1FB7C, size: 0x8, addend: 0x0, symName: __ZNSt3__117__compressed_pairINS_12basic_stringIcNS_11char_traitsIcEENS_9allocatorIcEEE5__repES5_E6secondB7v160006Ev, symObjAddr: 0x87BC, symBinAddr: 0x10000AEF8, symSize: 0x24 }
  - { offsetInCU: 0x1FBA2, offset: 0x1FBA2, size: 0x8, addend: 0x0, symName: __ZNSt3__122__compressed_pair_elemINS_9allocatorIcEELi1ELb1EE5__getB7v160006Ev, symObjAddr: 0x87E0, symBinAddr: 0x10000AF1C, symSize: 0x14 }
  - { offsetInCU: 0x1FBC8, offset: 0x1FBC8, size: 0x8, addend: 0x0, symName: __ZNSt3__112basic_stringIcNS_11char_traitsIcEENS_9allocatorIcEEE19__move_assign_allocB7v160006ERS5_NS_17integral_constantIbLb1EEE, symObjAddr: 0x87F4, symBinAddr: 0x10000AF30, symSize: 0x38 }
  - { offsetInCU: 0x1FC09, offset: 0x1FC09, size: 0x8, addend: 0x0, symName: __ZNSt3__122__compressed_pair_elemINS_12basic_stringIcNS_11char_traitsIcEENS_9allocatorIcEEE5__repELi0ELb0EE5__getB7v160006Ev, symObjAddr: 0x882C, symBinAddr: 0x10000AF68, symSize: 0x14 }
  - { offsetInCU: 0x1FC2F, offset: 0x1FC2F, size: 0x8, addend: 0x0, symName: __ZNSt3__114pointer_traitsIPcE10pointer_toB7v160006ERc, symObjAddr: 0x8840, symBinAddr: 0x10000AF7C, symSize: 0x14 }
  - { offsetInCU: 0x1FC52, offset: 0x1FC52, size: 0x8, addend: 0x0, symName: __ZNSt3__16vectorI3carNS_9allocatorIS1_EEE13__move_assignERS4_NS_17integral_constantIbLb1EEE, symObjAddr: 0x8854, symBinAddr: 0x10000AF90, symSize: 0xAC }
  - { offsetInCU: 0x1FC95, offset: 0x1FC95, size: 0x8, addend: 0x0, symName: __ZNSt3__16vectorI3carNS_9allocatorIS1_EEE13__vdeallocateEv, symObjAddr: 0x8900, symBinAddr: 0x10000B03C, symSize: 0x8C }
  - { offsetInCU: 0x1FCBD, offset: 0x1FCBD, size: 0x8, addend: 0x0, symName: __ZNSt3__16vectorI3carNS_9allocatorIS1_EEE19__move_assign_allocB7v160006ERS4_, symObjAddr: 0x898C, symBinAddr: 0x10000B0C8, symSize: 0x2C }
  - { offsetInCU: 0x1FCF2, offset: 0x1FCF2, size: 0x8, addend: 0x0, symName: __ZNSt3__16vectorI3carNS_9allocatorIS1_EEE19__move_assign_allocB7v160006ERS4_NS_17integral_constantIbLb1EEE, symObjAddr: 0x89CC, symBinAddr: 0x10000B108, symSize: 0x38 }
  - { offsetInCU: 0x1FD33, offset: 0x1FD33, size: 0x8, addend: 0x0, symName: __ZN3carD2Ev, symObjAddr: 0x8A04, symBinAddr: 0x10000B140, symSize: 0x2C }
  - { offsetInCU: 0x1FD5F, offset: 0x1FD5F, size: 0x8, addend: 0x0, symName: __ZNSt3__114basic_ifstreamIcNS_11char_traitsIcEEED2Ev, symObjAddr: 0x8A30, symBinAddr: 0x10000B16C, symSize: 0x64 }
  - { offsetInCU: 0x1FD99, offset: 0x1FD99, size: 0x8, addend: 0x0, symName: __ZTv0_n24_NSt3__114basic_ifstreamIcNS_11char_traitsIcEEED1Ev, symObjAddr: 0x8A94, symBinAddr: 0x10000B1D0, symSize: 0x28 }
  - { offsetInCU: 0x1FDB0, offset: 0x1FDB0, size: 0x8, addend: 0x0, symName: __ZNSt3__114basic_ofstreamIcNS_11char_traitsIcEEED2Ev, symObjAddr: 0x8ABC, symBinAddr: 0x10000B1F8, symSize: 0x64 }
  - { offsetInCU: 0x1FDEA, offset: 0x1FDEA, size: 0x8, addend: 0x0, symName: __ZTv0_n24_NSt3__114basic_ofstreamIcNS_11char_traitsIcEEED1Ev, symObjAddr: 0x8B20, symBinAddr: 0x10000B25C, symSize: 0x28 }
  - { offsetInCU: 0x1FE01, offset: 0x1FE01, size: 0x8, addend: 0x0, symName: __ZNKSt3__111__wrap_iterIP8employeeE4baseB7v160006Ev, symObjAddr: 0x8B90, symBinAddr: 0x10000B2CC, symSize: 0x18 }
  - { offsetInCU: 0x1FE27, offset: 0x1FE27, size: 0x8, addend: 0x0, symName: __ZN8employeeC2ERKS_, symObjAddr: 0x8BA8, symBinAddr: 0x10000B2E4, symSize: 0x84 }
  - { offsetInCU: 0x1FE5C, offset: 0x1FE5C, size: 0x8, addend: 0x0, symName: __ZN8employeeD2Ev, symObjAddr: 0x8C2C, symBinAddr: 0x10000B368, symSize: 0x38 }
  - { offsetInCU: 0x1FE88, offset: 0x1FE88, size: 0x8, addend: 0x0, symName: __ZNSt3__119basic_istringstreamIcNS_11char_traitsIcEENS_9allocatorIcEEED2Ev, symObjAddr: 0x8C64, symBinAddr: 0x10000B3A0, symSize: 0x64 }
  - { offsetInCU: 0x1FEC2, offset: 0x1FEC2, size: 0x8, addend: 0x0, symName: __ZTv0_n24_NSt3__119basic_istringstreamIcNS_11char_traitsIcEENS_9allocatorIcEEED1Ev, symObjAddr: 0x8CC8, symBinAddr: 0x10000B404, symSize: 0x28 }
  - { offsetInCU: 0x1FEDE, offset: 0x1FEDE, size: 0x8, addend: 0x0, symName: __ZNSt3__115basic_stringbufIcNS_11char_traitsIcEENS_9allocatorIcEEED1Ev, symObjAddr: 0x8CF0, symBinAddr: 0x10000B42C, symSize: 0x2C }
  - { offsetInCU: 0x1FF0B, offset: 0x1FF0B, size: 0x8, addend: 0x0, symName: __ZNSt3__115basic_stringbufIcNS_11char_traitsIcEENS_9allocatorIcEEED2Ev, symObjAddr: 0x8D1C, symBinAddr: 0x10000B458, symSize: 0x48 }
  - { offsetInCU: 0x1FF38, offset: 0x1FF38, size: 0x8, addend: 0x0, symName: __ZNSt3__118basic_stringstreamIcNS_11char_traitsIcEENS_9allocatorIcEEED2Ev, symObjAddr: 0x8D64, symBinAddr: 0x10000B4A0, symSize: 0x6C }
  - { offsetInCU: 0x1FF72, offset: 0x1FF72, size: 0x8, addend: 0x0, symName: __ZThn16_NSt3__118basic_stringstreamIcNS_11char_traitsIcEENS_9allocatorIcEEED1Ev, symObjAddr: 0x8DD0, symBinAddr: 0x10000B50C, symSize: 0x1C }
  - { offsetInCU: 0x1FF89, offset: 0x1FF89, size: 0x8, addend: 0x0, symName: __ZTv0_n24_NSt3__118basic_stringstreamIcNS_11char_traitsIcEENS_9allocatorIcEEED1Ev, symObjAddr: 0x8DEC, symBinAddr: 0x10000B528, symSize: 0x28 }
  - { offsetInCU: 0x1FFA0, offset: 0x1FFA0, size: 0x8, addend: 0x0, symName: __ZNKSt3__16chrono10time_pointINS0_12system_clockENS0_8durationIxNS_5ratioILl1ELl1000000EEEEEE16time_since_epochB7v160006Ev, symObjAddr: 0x8E9C, symBinAddr: 0x10000B5D8, symSize: 0x20 }
  - { offsetInCU: 0x1FFD0, offset: 0x1FFD0, size: 0x8, addend: 0x0, symName: __ZNKSt3__16chrono13__duration_ltINS0_8durationIxNS_5ratioILl1ELl1000000EEEEES5_EclB7v160006ERKS5_S8_, symObjAddr: 0x8EBC, symBinAddr: 0x10000B5F8, symSize: 0x4C }
  - { offsetInCU: 0x20014, offset: 0x20014, size: 0x8, addend: 0x0, symName: __ZNKSt3__16chrono8durationIxNS_5ratioILl1ELl1000000EEEE5countB7v160006Ev, symObjAddr: 0x8F08, symBinAddr: 0x10000B644, symSize: 0x18 }
  - { offsetInCU: 0x2003A, offset: 0x2003A, size: 0x8, addend: 0x0, symName: __ZN6recordD2Ev, symObjAddr: 0x8F20, symBinAddr: 0x10000B65C, symSize: 0x3C }
  - { offsetInCU: 0x20066, offset: 0x20066, size: 0x8, addend: 0x0, symName: __ZNKSt3__111__wrap_iterIP6recordE4baseB7v160006Ev, symObjAddr: 0x8FA4, symBinAddr: 0x10000B6E0, symSize: 0x18 }
  - { offsetInCU: 0x2008C, offset: 0x2008C, size: 0x8, addend: 0x0, symName: __ZNSt3__123__libcpp_numeric_limitsIlLb1EE3maxB7v160006Ev, symObjAddr: 0x8FBC, symBinAddr: 0x10000B6F8, symSize: 0x8 }
  - { offsetInCU: 0x200A0, offset: 0x200A0, size: 0x8, addend: 0x0, symName: __ZN7managerD2Ev, symObjAddr: 0x8FC4, symBinAddr: 0x10000B700, symSize: 0x2C }
  - { offsetInCU: 0x200CC, offset: 0x200CC, size: 0x8, addend: 0x0, symName: __ZNSt3__112basic_stringIcNS_11char_traitsIcEENS_9allocatorIcEEEC2B7v160006Ev, symObjAddr: 0x8FF0, symBinAddr: 0x10000B72C, symSize: 0x54 }
  - { offsetInCU: 0x200FC, offset: 0x200FC, size: 0x8, addend: 0x0, symName: __ZNSt3__117__compressed_pairINS_12basic_stringIcNS_11char_traitsIcEENS_9allocatorIcEEE5__repES5_EC1B7v160006INS_18__default_init_tagESA_EEOT_OT0_, symObjAddr: 0x9044, symBinAddr: 0x10000B780, symSize: 0x3C }
  - { offsetInCU: 0x20154, offset: 0x20154, size: 0x8, addend: 0x0, symName: __ZNSt3__112basic_stringIcNS_11char_traitsIcEENS_9allocatorIcEEE14__default_initB7v160006Ev, symObjAddr: 0x9090, symBinAddr: 0x10000B7CC, symSize: 0x40 }
  - { offsetInCU: 0x2017A, offset: 0x2017A, size: 0x8, addend: 0x0, symName: __ZNSt3__117__compressed_pairINS_12basic_stringIcNS_11char_traitsIcEENS_9allocatorIcEEE5__repES5_EC2B7v160006INS_18__default_init_tagESA_EEOT_OT0_, symObjAddr: 0x90D0, symBinAddr: 0x10000B80C, symSize: 0x3C }
  - { offsetInCU: 0x201D2, offset: 0x201D2, size: 0x8, addend: 0x0, symName: __ZNSt3__122__compressed_pair_elemINS_12basic_stringIcNS_11char_traitsIcEENS_9allocatorIcEEE5__repELi0ELb0EEC2B7v160006ENS_18__default_init_tagE, symObjAddr: 0x910C, symBinAddr: 0x10000B848, symSize: 0x14 }
  - { offsetInCU: 0x20207, offset: 0x20207, size: 0x8, addend: 0x0, symName: __ZNSt3__122__compressed_pair_elemINS_9allocatorIcEELi1ELb1EEC2B7v160006ENS_18__default_init_tagE, symObjAddr: 0x9120, symBinAddr: 0x10000B85C, symSize: 0x2C }
  - { offsetInCU: 0x2023C, offset: 0x2023C, size: 0x8, addend: 0x0, symName: __ZNSt3__19allocatorIcEC2B7v160006Ev, symObjAddr: 0x914C, symBinAddr: 0x10000B888, symSize: 0x2C }
  - { offsetInCU: 0x20266, offset: 0x20266, size: 0x8, addend: 0x0, symName: __ZNSt3__116__non_trivial_ifILb1ENS_9allocatorIcEEEC2B7v160006Ev, symObjAddr: 0x9178, symBinAddr: 0x10000B8B4, symSize: 0x14 }
  - { offsetInCU: 0x20290, offset: 0x20290, size: 0x8, addend: 0x0, symName: __ZNKSt3__112basic_stringIcNS_11char_traitsIcEENS_9allocatorIcEEE4sizeB7v160006Ev, symObjAddr: 0x918C, symBinAddr: 0x10000B8C8, symSize: 0x54 }
  - { offsetInCU: 0x202B6, offset: 0x202B6, size: 0x8, addend: 0x0, symName: __ZNKSt3__112basic_stringIcNS_11char_traitsIcEENS_9allocatorIcEEE15__get_long_sizeB7v160006Ev, symObjAddr: 0x91E0, symBinAddr: 0x10000B91C, symSize: 0x28 }
  - { offsetInCU: 0x202DC, offset: 0x202DC, size: 0x8, addend: 0x0, symName: __ZNKSt3__112basic_stringIcNS_11char_traitsIcEENS_9allocatorIcEEE16__get_short_sizeB7v160006Ev, symObjAddr: 0x9208, symBinAddr: 0x10000B944, symSize: 0x34 }
  - { offsetInCU: 0x20302, offset: 0x20302, size: 0x8, addend: 0x0, symName: __ZNSt3__16vectorI3carNS_9allocatorIS1_EEED2B7v160006Ev, symObjAddr: 0x923C, symBinAddr: 0x10000B978, symSize: 0x44 }
  - { offsetInCU: 0x2032C, offset: 0x2032C, size: 0x8, addend: 0x0, symName: __ZNSt3__111char_traitsIcE6lengthEPKc, symObjAddr: 0x946C, symBinAddr: 0x10000BBA8, symSize: 0x34 }
  - { offsetInCU: 0x2036D, offset: 0x2036D, size: 0x8, addend: 0x0, symName: __ZNKSt3__113basic_ostreamIcNS_11char_traitsIcEEE6sentrycvbB7v160006Ev, symObjAddr: 0x94A0, symBinAddr: 0x10000BBDC, symSize: 0x1C }
  - { offsetInCU: 0x20393, offset: 0x20393, size: 0x8, addend: 0x0, symName: __ZNSt3__119ostreambuf_iteratorIcNS_11char_traitsIcEEEC1B7v160006ERNS_13basic_ostreamIcS2_EE, symObjAddr: 0x96FC, symBinAddr: 0x10000BE38, symSize: 0x34 }
  - { offsetInCU: 0x203CB, offset: 0x203CB, size: 0x8, addend: 0x0, symName: __ZNKSt3__18ios_base5flagsB7v160006Ev, symObjAddr: 0x9730, symBinAddr: 0x10000BE6C, symSize: 0x18 }
  - { offsetInCU: 0x203F3, offset: 0x203F3, size: 0x8, addend: 0x0, symName: __ZNKSt3__19basic_iosIcNS_11char_traitsIcEEE4fillB7v160006Ev, symObjAddr: 0x9748, symBinAddr: 0x10000BE84, symSize: 0x64 }
  - { offsetInCU: 0x2041B, offset: 0x2041B, size: 0x8, addend: 0x0, symName: __ZNKSt3__119ostreambuf_iteratorIcNS_11char_traitsIcEEE6failedB7v160006Ev, symObjAddr: 0x97AC, symBinAddr: 0x10000BEE8, symSize: 0x24 }
  - { offsetInCU: 0x20441, offset: 0x20441, size: 0x8, addend: 0x0, symName: __ZNSt3__19basic_iosIcNS_11char_traitsIcEEE8setstateB7v160006Ej, symObjAddr: 0x97D0, symBinAddr: 0x10000BF0C, symSize: 0x2C }
  - { offsetInCU: 0x20476, offset: 0x20476, size: 0x8, addend: 0x0, symName: __ZNKSt3__18ios_base5widthB7v160006Ev, symObjAddr: 0x97FC, symBinAddr: 0x10000BF38, symSize: 0x18 }
  - { offsetInCU: 0x2049E, offset: 0x2049E, size: 0x8, addend: 0x0, symName: __ZNSt3__115basic_streambufIcNS_11char_traitsIcEEE5sputnB7v160006EPKcl, symObjAddr: 0x9814, symBinAddr: 0x10000BF50, symSize: 0x3C }
  - { offsetInCU: 0x204E0, offset: 0x204E0, size: 0x8, addend: 0x0, symName: __ZNSt3__112basic_stringIcNS_11char_traitsIcEENS_9allocatorIcEEEC1B7v160006Emc, symObjAddr: 0x9850, symBinAddr: 0x10000BF8C, symSize: 0x3C }
  - { offsetInCU: 0x20528, offset: 0x20528, size: 0x8, addend: 0x0, symName: __ZNSt3__112basic_stringIcNS_11char_traitsIcEENS_9allocatorIcEEE4dataB7v160006Ev, symObjAddr: 0x988C, symBinAddr: 0x10000BFC8, symSize: 0x28 }
  - { offsetInCU: 0x2054E, offset: 0x2054E, size: 0x8, addend: 0x0, symName: __ZNSt3__18ios_base5widthB7v160006El, symObjAddr: 0x98B4, symBinAddr: 0x10000BFF0, symSize: 0x2C }
  - { offsetInCU: 0x20594, offset: 0x20594, size: 0x8, addend: 0x0, symName: __ZNSt3__112basic_stringIcNS_11char_traitsIcEENS_9allocatorIcEEEC2B7v160006Emc, symObjAddr: 0x98E0, symBinAddr: 0x10000C01C, symSize: 0x54 }
  - { offsetInCU: 0x205DC, offset: 0x205DC, size: 0x8, addend: 0x0, symName: __ZNSt3__112basic_stringIcNS_11char_traitsIcEENS_9allocatorIcEEE13__get_pointerB7v160006Ev, symObjAddr: 0x9948, symBinAddr: 0x10000C084, symSize: 0x54 }
  - { offsetInCU: 0x20602, offset: 0x20602, size: 0x8, addend: 0x0, symName: __ZNSt3__119ostreambuf_iteratorIcNS_11char_traitsIcEEEC2B7v160006ERNS_13basic_ostreamIcS2_EE, symObjAddr: 0x999C, symBinAddr: 0x10000C0D8, symSize: 0x54 }
  - { offsetInCU: 0x2063A, offset: 0x2063A, size: 0x8, addend: 0x0, symName: __ZNKSt3__19basic_iosIcNS_11char_traitsIcEEE5rdbufB7v160006Ev, symObjAddr: 0x99F0, symBinAddr: 0x10000C12C, symSize: 0x24 }
  - { offsetInCU: 0x20662, offset: 0x20662, size: 0x8, addend: 0x0, symName: __ZNKSt3__18ios_base5rdbufB7v160006Ev, symObjAddr: 0x9A14, symBinAddr: 0x10000C150, symSize: 0x18 }
  - { offsetInCU: 0x20688, offset: 0x20688, size: 0x8, addend: 0x0, symName: __ZNSt3__111char_traitsIcE11eq_int_typeEii, symObjAddr: 0x9A2C, symBinAddr: 0x10000C168, symSize: 0x28 }
  - { offsetInCU: 0x206B9, offset: 0x206B9, size: 0x8, addend: 0x0, symName: __ZNSt3__111char_traitsIcE3eofEv, symObjAddr: 0x9A54, symBinAddr: 0x10000C190, symSize: 0x8 }
  - { offsetInCU: 0x206CD, offset: 0x206CD, size: 0x8, addend: 0x0, symName: __ZNKSt3__19basic_iosIcNS_11char_traitsIcEEE5widenB7v160006Ec, symObjAddr: 0x9A5C, symBinAddr: 0x10000C198, symSize: 0x84 }
  - { offsetInCU: 0x20731, offset: 0x20731, size: 0x8, addend: 0x0, symName: __ZNKSt3__15ctypeIcE5widenB7v160006Ec, symObjAddr: 0x9B0C, symBinAddr: 0x10000C248, symSize: 0x38 }
  - { offsetInCU: 0x20766, offset: 0x20766, size: 0x8, addend: 0x0, symName: __ZNSt3__18ios_base8setstateB7v160006Ej, symObjAddr: 0x9B44, symBinAddr: 0x10000C280, symSize: 0x34 }
  - { offsetInCU: 0x2079D, offset: 0x2079D, size: 0x8, addend: 0x0, symName: __ZNSt3__16vectorI3carNS_9allocatorIS1_EEE11__make_iterB7v160006EPS1_, symObjAddr: 0x9B9C, symBinAddr: 0x10000C2D8, symSize: 0x34 }
  - { offsetInCU: 0x207D2, offset: 0x207D2, size: 0x8, addend: 0x0, symName: __ZNSt3__111__wrap_iterIP3carEC1B7v160006EPKvS2_, symObjAddr: 0x9BD0, symBinAddr: 0x10000C30C, symSize: 0x3C }
  - { offsetInCU: 0x20818, offset: 0x20818, size: 0x8, addend: 0x0, symName: __ZNSt3__111__wrap_iterIP3carEC2B7v160006EPKvS2_, symObjAddr: 0x9C0C, symBinAddr: 0x10000C348, symSize: 0x24 }
  - { offsetInCU: 0x2085E, offset: 0x2085E, size: 0x8, addend: 0x0, symName: __ZNKSt3__112basic_stringIcNS_11char_traitsIcEENS_9allocatorIcEEE4dataB7v160006Ev, symObjAddr: 0x9C30, symBinAddr: 0x10000C36C, symSize: 0x28 }
  - { offsetInCU: 0x20884, offset: 0x20884, size: 0x8, addend: 0x0, symName: __ZNKSt3__112basic_stringIcNS_11char_traitsIcEENS_9allocatorIcEEE13__get_pointerB7v160006Ev, symObjAddr: 0x9C6C, symBinAddr: 0x10000C3A8, symSize: 0x54 }
  - { offsetInCU: 0x208AA, offset: 0x208AA, size: 0x8, addend: 0x0, symName: __ZNKSt3__112basic_stringIcNS_11char_traitsIcEENS_9allocatorIcEEE18__get_long_pointerB7v160006Ev, symObjAddr: 0x9CC0, symBinAddr: 0x10000C3FC, symSize: 0x28 }
  - { offsetInCU: 0x208D0, offset: 0x208D0, size: 0x8, addend: 0x0, symName: __ZNKSt3__112basic_stringIcNS_11char_traitsIcEENS_9allocatorIcEEE19__get_short_pointerB7v160006Ev, symObjAddr: 0x9CE8, symBinAddr: 0x10000C424, symSize: 0x28 }
  - { offsetInCU: 0x208F6, offset: 0x208F6, size: 0x8, addend: 0x0, symName: __ZNSt3__114pointer_traitsIPKcE10pointer_toB7v160006ERS1_, symObjAddr: 0x9D10, symBinAddr: 0x10000C44C, symSize: 0x14 }
  - { offsetInCU: 0x20919, offset: 0x20919, size: 0x8, addend: 0x0, symName: __ZNSt3__16vectorI8customerNS_9allocatorIS1_EEED2B7v160006Ev, symObjAddr: 0x9D24, symBinAddr: 0x10000C460, symSize: 0x44 }
  - { offsetInCU: 0x20943, offset: 0x20943, size: 0x8, addend: 0x0, symName: __ZNSt3__16vectorI8customerNS_9allocatorIS1_EEE16__destroy_vectorC1ERS4_, symObjAddr: 0x9D68, symBinAddr: 0x10000C4A4, symSize: 0x34 }
  - { offsetInCU: 0x2097C, offset: 0x2097C, size: 0x8, addend: 0x0, symName: __ZNSt3__16vectorI8customerNS_9allocatorIS1_EEE16__destroy_vectorclB7v160006Ev, symObjAddr: 0x9D9C, symBinAddr: 0x10000C4D8, symSize: 0x9C }
  - { offsetInCU: 0x209A2, offset: 0x209A2, size: 0x8, addend: 0x0, symName: __ZNSt3__16vectorI8customerNS_9allocatorIS1_EEE16__destroy_vectorC2ERS4_, symObjAddr: 0x9E38, symBinAddr: 0x10000C574, symSize: 0x20 }
  - { offsetInCU: 0x209DB, offset: 0x209DB, size: 0x8, addend: 0x0, symName: __ZNKSt3__16vectorI8customerNS_9allocatorIS1_EEE17__annotate_deleteB7v160006Ev, symObjAddr: 0x9E58, symBinAddr: 0x10000C594, symSize: 0xD4 }
  - { offsetInCU: 0x20A01, offset: 0x20A01, size: 0x8, addend: 0x0, symName: __ZNSt3__16vectorI8customerNS_9allocatorIS1_EEE7__clearB7v160006Ev, symObjAddr: 0x9F3C, symBinAddr: 0x10000C678, symSize: 0x28 }
  - { offsetInCU: 0x20A27, offset: 0x20A27, size: 0x8, addend: 0x0, symName: __ZNSt3__116allocator_traitsINS_9allocatorI8customerEEE10deallocateB7v160006ERS3_PS2_m, symObjAddr: 0x9F64, symBinAddr: 0x10000C6A0, symSize: 0x34 }
  - { offsetInCU: 0x20A69, offset: 0x20A69, size: 0x8, addend: 0x0, symName: __ZNSt3__16vectorI8customerNS_9allocatorIS1_EEE7__allocB7v160006Ev, symObjAddr: 0x9F98, symBinAddr: 0x10000C6D4, symSize: 0x28 }
  - { offsetInCU: 0x20A8F, offset: 0x20A8F, size: 0x8, addend: 0x0, symName: __ZNKSt3__16vectorI8customerNS_9allocatorIS1_EEE8capacityB7v160006Ev, symObjAddr: 0x9FC0, symBinAddr: 0x10000C6FC, symSize: 0x40 }
  - { offsetInCU: 0x20AB5, offset: 0x20AB5, size: 0x8, addend: 0x0, symName: __ZNKSt3__16vectorI8customerNS_9allocatorIS1_EEE31__annotate_contiguous_containerB7v160006EPKvS6_S6_S6_, symObjAddr: 0xA000, symBinAddr: 0x10000C73C, symSize: 0x20 }
  - { offsetInCU: 0x20B0B, offset: 0x20B0B, size: 0x8, addend: 0x0, symName: __ZNKSt3__16vectorI8customerNS_9allocatorIS1_EEE4dataB7v160006Ev, symObjAddr: 0xA020, symBinAddr: 0x10000C75C, symSize: 0x28 }
  - { offsetInCU: 0x20B31, offset: 0x20B31, size: 0x8, addend: 0x0, symName: __ZNKSt3__16vectorI8customerNS_9allocatorIS1_EEE4sizeB7v160006Ev, symObjAddr: 0xA048, symBinAddr: 0x10000C784, symSize: 0x28 }
  - { offsetInCU: 0x20B57, offset: 0x20B57, size: 0x8, addend: 0x0, symName: __ZNSt3__16vectorI8customerNS_9allocatorIS1_EEE22__base_destruct_at_endB7v160006EPS1_, symObjAddr: 0xA084, symBinAddr: 0x10000C7C0, symSize: 0x8C }
  - { offsetInCU: 0x20B9B, offset: 0x20B9B, size: 0x8, addend: 0x0, symName: __ZNSt3__116allocator_traitsINS_9allocatorI8customerEEE7destroyB7v160006IS2_vEEvRS3_PT_, symObjAddr: 0xA110, symBinAddr: 0x10000C84C, symSize: 0x2C }
  - { offsetInCU: 0x20BD8, offset: 0x20BD8, size: 0x8, addend: 0x0, symName: __ZNSt3__19allocatorI8customerE7destroyB7v160006EPS1_, symObjAddr: 0xA13C, symBinAddr: 0x10000C878, symSize: 0x28 }
  - { offsetInCU: 0x20C0C, offset: 0x20C0C, size: 0x8, addend: 0x0, symName: __ZNSt3__19allocatorI8customerE10deallocateB7v160006EPS1_m, symObjAddr: 0xA164, symBinAddr: 0x10000C8A0, symSize: 0x44 }
  - { offsetInCU: 0x20C4E, offset: 0x20C4E, size: 0x8, addend: 0x0, symName: __ZNSt3__117__compressed_pairIP8customerNS_9allocatorIS1_EEE6secondB7v160006Ev, symObjAddr: 0xA1A8, symBinAddr: 0x10000C8E4, symSize: 0x24 }
  - { offsetInCU: 0x20C74, offset: 0x20C74, size: 0x8, addend: 0x0, symName: __ZNSt3__122__compressed_pair_elemINS_9allocatorI8customerEELi1ELb1EE5__getB7v160006Ev, symObjAddr: 0xA1CC, symBinAddr: 0x10000C908, symSize: 0x14 }
  - { offsetInCU: 0x20C9A, offset: 0x20C9A, size: 0x8, addend: 0x0, symName: __ZNKSt3__16vectorI8customerNS_9allocatorIS1_EEE9__end_capB7v160006Ev, symObjAddr: 0xA1E0, symBinAddr: 0x10000C91C, symSize: 0x28 }
  - { offsetInCU: 0x20CC0, offset: 0x20CC0, size: 0x8, addend: 0x0, symName: __ZNKSt3__117__compressed_pairIP8customerNS_9allocatorIS1_EEE5firstB7v160006Ev, symObjAddr: 0xA208, symBinAddr: 0x10000C944, symSize: 0x24 }
  - { offsetInCU: 0x20CE6, offset: 0x20CE6, size: 0x8, addend: 0x0, symName: __ZNKSt3__122__compressed_pair_elemIP8customerLi0ELb0EE5__getB7v160006Ev, symObjAddr: 0xA22C, symBinAddr: 0x10000C968, symSize: 0x14 }
  - { offsetInCU: 0x20D0C, offset: 0x20D0C, size: 0x8, addend: 0x0, symName: __ZNSt3__16vectorI8customerNS_9allocatorIS1_EEE11__make_iterB7v160006EPS1_, symObjAddr: 0xA240, symBinAddr: 0x10000C97C, symSize: 0x34 }
  - { offsetInCU: 0x20D41, offset: 0x20D41, size: 0x8, addend: 0x0, symName: __ZNSt3__111__wrap_iterIP8customerEC1B7v160006EPKvS2_, symObjAddr: 0xA274, symBinAddr: 0x10000C9B0, symSize: 0x3C }
  - { offsetInCU: 0x20D87, offset: 0x20D87, size: 0x8, addend: 0x0, symName: __ZNSt3__111__wrap_iterIP8customerEC2B7v160006EPKvS2_, symObjAddr: 0xA2B0, symBinAddr: 0x10000C9EC, symSize: 0x24 }
  - { offsetInCU: 0x20DCD, offset: 0x20DCD, size: 0x8, addend: 0x0, symName: __ZNSt3__112basic_stringIcNS_11char_traitsIcEENS_9allocatorIcEEEC2B7v160006IDnEEPKc, symObjAddr: 0xA2D4, symBinAddr: 0x10000CA10, symSize: 0x60 }
  - { offsetInCU: 0x20E0B, offset: 0x20E0B, size: 0x8, addend: 0x0, symName: __ZNSt3__19basic_iosIcNS_11char_traitsIcEEEC2B7v160006Ev, symObjAddr: 0xA334, symBinAddr: 0x10000CA70, symSize: 0x44 }
  - { offsetInCU: 0x20E35, offset: 0x20E35, size: 0x8, addend: 0x0, symName: __ZNSt3__113basic_istreamIcNS_11char_traitsIcEEEC2B7v160006EPNS_15basic_streambufIcS2_EE, symObjAddr: 0xA378, symBinAddr: 0x10000CAB4, symSize: 0x64 }
  - { offsetInCU: 0x20E7A, offset: 0x20E7A, size: 0x8, addend: 0x0, symName: __ZNSt3__18ios_baseC2B7v160006Ev, symObjAddr: 0xA3DC, symBinAddr: 0x10000CB18, symSize: 0x24 }
  - { offsetInCU: 0x20EA4, offset: 0x20EA4, size: 0x8, addend: 0x0, symName: __ZNSt3__19basic_iosIcNS_11char_traitsIcEEE4initB7v160006EPNS_15basic_streambufIcS2_EE, symObjAddr: 0xA400, symBinAddr: 0x10000CB3C, symSize: 0x44 }
  - { offsetInCU: 0x20EDB, offset: 0x20EDB, size: 0x8, addend: 0x0, symName: __ZNSt3__16vectorI3carNS_9allocatorIS1_EEEC2B7v160006Ev, symObjAddr: 0xA444, symBinAddr: 0x10000CB80, symSize: 0x54 }
  - { offsetInCU: 0x20F05, offset: 0x20F05, size: 0x8, addend: 0x0, symName: __ZNSt3__117__compressed_pairIP3carNS_9allocatorIS1_EEEC1B7v160006IDnNS_18__default_init_tagEEEOT_OT0_, symObjAddr: 0xA498, symBinAddr: 0x10000CBD4, symSize: 0x3C }
  - { offsetInCU: 0x20F5D, offset: 0x20F5D, size: 0x8, addend: 0x0, symName: __ZNSt3__117__compressed_pairIP3carNS_9allocatorIS1_EEEC2B7v160006IDnNS_18__default_init_tagEEEOT_OT0_, symObjAddr: 0xA4D4, symBinAddr: 0x10000CC10, symSize: 0x40 }
  - { offsetInCU: 0x20FB5, offset: 0x20FB5, size: 0x8, addend: 0x0, symName: __ZNSt3__122__compressed_pair_elemINS_9allocatorI3carEELi1ELb1EEC2B7v160006ENS_18__default_init_tagE, symObjAddr: 0xA514, symBinAddr: 0x10000CC50, symSize: 0x2C }
  - { offsetInCU: 0x20FEA, offset: 0x20FEA, size: 0x8, addend: 0x0, symName: __ZNSt3__19allocatorI3carEC2B7v160006Ev, symObjAddr: 0xA540, symBinAddr: 0x10000CC7C, symSize: 0x2C }
  - { offsetInCU: 0x21014, offset: 0x21014, size: 0x8, addend: 0x0, symName: __ZNSt3__116__non_trivial_ifILb1ENS_9allocatorI3carEEEC2B7v160006Ev, symObjAddr: 0xA56C, symBinAddr: 0x10000CCA8, symSize: 0x14 }
  - { offsetInCU: 0x2103E, offset: 0x2103E, size: 0x8, addend: 0x0, symName: __ZNSt3__16vectorI8customerNS_9allocatorIS1_EEEC2B7v160006Ev, symObjAddr: 0xA580, symBinAddr: 0x10000CCBC, symSize: 0x58 }
  - { offsetInCU: 0x21068, offset: 0x21068, size: 0x8, addend: 0x0, symName: __ZNSt3__117__compressed_pairIP8customerNS_9allocatorIS1_EEEC1B7v160006IDnNS_18__default_init_tagEEEOT_OT0_, symObjAddr: 0xA5D8, symBinAddr: 0x10000CD14, symSize: 0x3C }
  - { offsetInCU: 0x210C0, offset: 0x210C0, size: 0x8, addend: 0x0, symName: __ZNSt3__117__compressed_pairIP8customerNS_9allocatorIS1_EEEC2B7v160006IDnNS_18__default_init_tagEEEOT_OT0_, symObjAddr: 0xA624, symBinAddr: 0x10000CD60, symSize: 0x40 }
  - { offsetInCU: 0x21118, offset: 0x21118, size: 0x8, addend: 0x0, symName: __ZNSt3__122__compressed_pair_elemIP8customerLi0ELb0EEC2B7v160006IDnvEEOT_, symObjAddr: 0xA664, symBinAddr: 0x10000CDA0, symSize: 0x1C }
  - { offsetInCU: 0x2115A, offset: 0x2115A, size: 0x8, addend: 0x0, symName: __ZNSt3__122__compressed_pair_elemINS_9allocatorI8customerEELi1ELb1EEC2B7v160006ENS_18__default_init_tagE, symObjAddr: 0xA680, symBinAddr: 0x10000CDBC, symSize: 0x2C }
  - { offsetInCU: 0x2118F, offset: 0x2118F, size: 0x8, addend: 0x0, symName: __ZNSt3__19allocatorI8customerEC2B7v160006Ev, symObjAddr: 0xA6AC, symBinAddr: 0x10000CDE8, symSize: 0x2C }
  - { offsetInCU: 0x211B9, offset: 0x211B9, size: 0x8, addend: 0x0, symName: __ZNSt3__116__non_trivial_ifILb1ENS_9allocatorI8customerEEEC2B7v160006Ev, symObjAddr: 0xA6D8, symBinAddr: 0x10000CE14, symSize: 0x14 }
  - { offsetInCU: 0x21201, offset: 0x21201, size: 0x8, addend: 0x0, symName: __ZNKSt3__113basic_istreamIcNS_11char_traitsIcEEE6sentrycvbB7v160006Ev, symObjAddr: 0xA924, symBinAddr: 0x10000D060, symSize: 0x1C }
  - { offsetInCU: 0x21227, offset: 0x21227, size: 0x8, addend: 0x0, symName: __ZNSt3__112basic_stringIcNS_11char_traitsIcEENS_9allocatorIcEEE5clearB7v160006Ev, symObjAddr: 0xA940, symBinAddr: 0x10000D07C, symSize: 0x88 }
  - { offsetInCU: 0x2124F, offset: 0x2124F, size: 0x8, addend: 0x0, symName: __ZNSt3__115basic_streambufIcNS_11char_traitsIcEEE6sbumpcB7v160006Ev, symObjAddr: 0xA9C8, symBinAddr: 0x10000D104, symSize: 0x78 }
  - { offsetInCU: 0x21275, offset: 0x21275, size: 0x8, addend: 0x0, symName: __ZNSt3__111char_traitsIcE12to_char_typeEi, symObjAddr: 0xAA40, symBinAddr: 0x10000D17C, symSize: 0x18 }
  - { offsetInCU: 0x21298, offset: 0x21298, size: 0x8, addend: 0x0, symName: __ZNSt3__111char_traitsIcE2eqEcc, symObjAddr: 0xAA58, symBinAddr: 0x10000D194, symSize: 0x28 }
  - { offsetInCU: 0x212C9, offset: 0x212C9, size: 0x8, addend: 0x0, symName: __ZNKSt3__112basic_stringIcNS_11char_traitsIcEENS_9allocatorIcEEE8max_sizeB7v160006Ev, symObjAddr: 0xAA80, symBinAddr: 0x10000D1BC, symSize: 0xAC }
  - { offsetInCU: 0x2131B, offset: 0x2131B, size: 0x8, addend: 0x0, symName: __ZNSt3__18ios_base18__setstate_nothrowB7v160006Ej, symObjAddr: 0xAB2C, symBinAddr: 0x10000D268, symSize: 0x64 }
  - { offsetInCU: 0x21350, offset: 0x21350, size: 0x8, addend: 0x0, symName: __ZNKSt3__19basic_iosIcNS_11char_traitsIcEEE10exceptionsB7v160006Ev, symObjAddr: 0xAB90, symBinAddr: 0x10000D2CC, symSize: 0x24 }
  - { offsetInCU: 0x21376, offset: 0x21376, size: 0x8, addend: 0x0, symName: __ZNSt3__112basic_stringIcNS_11char_traitsIcEENS_9allocatorIcEEE15__set_long_sizeB7v160006Em, symObjAddr: 0xABC4, symBinAddr: 0x10000D300, symSize: 0x38 }
  - { offsetInCU: 0x213AB, offset: 0x213AB, size: 0x8, addend: 0x0, symName: __ZNSt3__111char_traitsIcE11to_int_typeEc, symObjAddr: 0xABFC, symBinAddr: 0x10000D338, symSize: 0x14 }
  - { offsetInCU: 0x213D8, offset: 0x213D8, size: 0x8, addend: 0x0, symName: __ZNSt3__116allocator_traitsINS_9allocatorIcEEE8max_sizeB7v160006IS2_vEEmRKS2_, symObjAddr: 0xAC10, symBinAddr: 0x10000D34C, symSize: 0x24 }
  - { offsetInCU: 0x21406, offset: 0x21406, size: 0x8, addend: 0x0, symName: __ZNKSt3__112basic_stringIcNS_11char_traitsIcEENS_9allocatorIcEEE7__allocB7v160006Ev, symObjAddr: 0xAC34, symBinAddr: 0x10000D370, symSize: 0x24 }
  - { offsetInCU: 0x2142C, offset: 0x2142C, size: 0x8, addend: 0x0, symName: __ZNSt3__114numeric_limitsImE3maxB7v160006Ev, symObjAddr: 0xAC58, symBinAddr: 0x10000D394, symSize: 0x14 }
  - { offsetInCU: 0x21440, offset: 0x21440, size: 0x8, addend: 0x0, symName: __ZNKSt3__19allocatorIcE8max_sizeB7v160006Ev, symObjAddr: 0xAC6C, symBinAddr: 0x10000D3A8, symSize: 0x14 }
  - { offsetInCU: 0x21466, offset: 0x21466, size: 0x8, addend: 0x0, symName: __ZNKSt3__117__compressed_pairINS_12basic_stringIcNS_11char_traitsIcEENS_9allocatorIcEEE5__repES5_E6secondB7v160006Ev, symObjAddr: 0xAC80, symBinAddr: 0x10000D3BC, symSize: 0x24 }
  - { offsetInCU: 0x2148C, offset: 0x2148C, size: 0x8, addend: 0x0, symName: __ZNKSt3__122__compressed_pair_elemINS_9allocatorIcEELi1ELb1EE5__getB7v160006Ev, symObjAddr: 0xACA4, symBinAddr: 0x10000D3E0, symSize: 0x14 }
  - { offsetInCU: 0x214B2, offset: 0x214B2, size: 0x8, addend: 0x0, symName: __ZNSt3__123__libcpp_numeric_limitsImLb1EE3maxB7v160006Ev, symObjAddr: 0xACB8, symBinAddr: 0x10000D3F4, symSize: 0x8 }
  - { offsetInCU: 0x214C6, offset: 0x214C6, size: 0x8, addend: 0x0, symName: __ZNKSt3__18ios_base10exceptionsB7v160006Ev, symObjAddr: 0xACC0, symBinAddr: 0x10000D3FC, symSize: 0x18 }
  - { offsetInCU: 0x214EE, offset: 0x214EE, size: 0x8, addend: 0x0, symName: __ZNKSt3__19basic_iosIcNS_11char_traitsIcEEE4failB7v160006Ev, symObjAddr: 0xACD8, symBinAddr: 0x10000D414, symSize: 0x28 }
  - { offsetInCU: 0x21514, offset: 0x21514, size: 0x8, addend: 0x0, symName: __ZNKSt3__18ios_base4failB7v160006Ev, symObjAddr: 0xAD00, symBinAddr: 0x10000D43C, symSize: 0x28 }
  - { offsetInCU: 0x2153C, offset: 0x2153C, size: 0x8, addend: 0x0, symName: __ZNSt3__16vectorI8customerNS_9allocatorIS1_EEE9__end_capB7v160006Ev, symObjAddr: 0xAD28, symBinAddr: 0x10000D464, symSize: 0x28 }
  - { offsetInCU: 0x21562, offset: 0x21562, size: 0x8, addend: 0x0, symName: __ZNSt3__16vectorI8customerNS_9allocatorIS1_EEE22__construct_one_at_endB7v160006IJRKS1_EEEvDpOT_, symObjAddr: 0xAD50, symBinAddr: 0x10000D48C, symSize: 0x90 }
  - { offsetInCU: 0x215B1, offset: 0x215B1, size: 0x8, addend: 0x0, symName: __ZNSt3__16vectorI8customerNS_9allocatorIS1_EEE21__push_back_slow_pathIRKS1_EEvOT_, symObjAddr: 0xADE0, symBinAddr: 0x10000D51C, symSize: 0xD8 }
  - { offsetInCU: 0x2160F, offset: 0x2160F, size: 0x8, addend: 0x0, symName: __ZNSt3__117__compressed_pairIP8customerNS_9allocatorIS1_EEE5firstB7v160006Ev, symObjAddr: 0xAEB8, symBinAddr: 0x10000D5F4, symSize: 0x24 }
  - { offsetInCU: 0x21635, offset: 0x21635, size: 0x8, addend: 0x0, symName: __ZNSt3__122__compressed_pair_elemIP8customerLi0ELb0EE5__getB7v160006Ev, symObjAddr: 0xAEDC, symBinAddr: 0x10000D618, symSize: 0x14 }
  - { offsetInCU: 0x21674, offset: 0x21674, size: 0x8, addend: 0x0, symName: __ZNSt3__16vectorI8customerNS_9allocatorIS1_EEE21_ConstructTransactionC1B7v160006ERS4_m, symObjAddr: 0xAEF0, symBinAddr: 0x10000D62C, symSize: 0x3C }
  - { offsetInCU: 0x216BC, offset: 0x216BC, size: 0x8, addend: 0x0, symName: __ZNSt3__116allocator_traitsINS_9allocatorI8customerEEE9constructB7v160006IS2_JRKS2_EvEEvRS3_PT_DpOT0_, symObjAddr: 0xAF2C, symBinAddr: 0x10000D668, symSize: 0x34 }
  - { offsetInCU: 0x21713, offset: 0x21713, size: 0x8, addend: 0x0, symName: __ZNSt3__16vectorI8customerNS_9allocatorIS1_EEE21_ConstructTransactionD1B7v160006Ev, symObjAddr: 0xAF60, symBinAddr: 0x10000D69C, symSize: 0x2C }
  - { offsetInCU: 0x2173D, offset: 0x2173D, size: 0x8, addend: 0x0, symName: __ZNSt3__16vectorI8customerNS_9allocatorIS1_EEE21_ConstructTransactionC2B7v160006ERS4_m, symObjAddr: 0xAF8C, symBinAddr: 0x10000D6C8, symSize: 0x4C }
  - { offsetInCU: 0x21785, offset: 0x21785, size: 0x8, addend: 0x0, symName: __ZNSt3__19allocatorI8customerE9constructB7v160006IS1_JRKS1_EEEvPT_DpOT0_, symObjAddr: 0xAFD8, symBinAddr: 0x10000D714, symSize: 0x30 }
  - { offsetInCU: 0x217DB, offset: 0x217DB, size: 0x8, addend: 0x0, symName: __ZNSt3__16vectorI8customerNS_9allocatorIS1_EEE21_ConstructTransactionD2B7v160006Ev, symObjAddr: 0xB008, symBinAddr: 0x10000D744, symSize: 0x20 }
  - { offsetInCU: 0x21805, offset: 0x21805, size: 0x8, addend: 0x0, symName: __ZNKSt3__16vectorI8customerNS_9allocatorIS1_EEE11__recommendB7v160006Em, symObjAddr: 0xB028, symBinAddr: 0x10000D764, symSize: 0xB4 }
  - { offsetInCU: 0x2185A, offset: 0x2185A, size: 0x8, addend: 0x0, symName: __ZNSt3__114__split_bufferI8customerRNS_9allocatorIS1_EEEC1EmmS4_, symObjAddr: 0xB0DC, symBinAddr: 0x10000D818, symSize: 0x44 }
  - { offsetInCU: 0x218B0, offset: 0x218B0, size: 0x8, addend: 0x0, symName: __ZNSt3__114__split_bufferI8customerRNS_9allocatorIS1_EEED1Ev, symObjAddr: 0xB238, symBinAddr: 0x10000D974, symSize: 0x2C }
  - { offsetInCU: 0x218DC, offset: 0x218DC, size: 0x8, addend: 0x0, symName: __ZNKSt3__16vectorI8customerNS_9allocatorIS1_EEE8max_sizeEv, symObjAddr: 0xB264, symBinAddr: 0x10000D9A0, symSize: 0x60 }
  - { offsetInCU: 0x21904, offset: 0x21904, size: 0x8, addend: 0x0, symName: __ZNKSt3__16vectorI8customerNS_9allocatorIS1_EEE20__throw_length_errorB7v160006Ev, symObjAddr: 0xB2C4, symBinAddr: 0x10000DA00, symSize: 0x1C }
  - { offsetInCU: 0x21934, offset: 0x21934, size: 0x8, addend: 0x0, symName: __ZNSt3__116allocator_traitsINS_9allocatorI8customerEEE8max_sizeB7v160006IS3_vEEmRKS3_, symObjAddr: 0xB30C, symBinAddr: 0x10000DA48, symSize: 0x24 }
  - { offsetInCU: 0x21962, offset: 0x21962, size: 0x8, addend: 0x0, symName: __ZNKSt3__16vectorI8customerNS_9allocatorIS1_EEE7__allocB7v160006Ev, symObjAddr: 0xB330, symBinAddr: 0x10000DA6C, symSize: 0x28 }
  - { offsetInCU: 0x21988, offset: 0x21988, size: 0x8, addend: 0x0, symName: __ZNKSt3__19allocatorI8customerE8max_sizeB7v160006Ev, symObjAddr: 0xB358, symBinAddr: 0x10000DA94, symSize: 0x18 }
  - { offsetInCU: 0x219AE, offset: 0x219AE, size: 0x8, addend: 0x0, symName: __ZNKSt3__117__compressed_pairIP8customerNS_9allocatorIS1_EEE6secondB7v160006Ev, symObjAddr: 0xB370, symBinAddr: 0x10000DAAC, symSize: 0x24 }
  - { offsetInCU: 0x219D4, offset: 0x219D4, size: 0x8, addend: 0x0, symName: __ZNKSt3__122__compressed_pair_elemINS_9allocatorI8customerEELi1ELb1EE5__getB7v160006Ev, symObjAddr: 0xB394, symBinAddr: 0x10000DAD0, symSize: 0x14 }
  - { offsetInCU: 0x219FA, offset: 0x219FA, size: 0x8, addend: 0x0, symName: __ZNSt3__114__split_bufferI8customerRNS_9allocatorIS1_EEEC2EmmS4_, symObjAddr: 0xB3FC, symBinAddr: 0x10000DB38, symSize: 0xE0 }
  - { offsetInCU: 0x21A6D, offset: 0x21A6D, size: 0x8, addend: 0x0, symName: __ZNSt3__117__compressed_pairIP8customerRNS_9allocatorIS1_EEEC1B7v160006IDnS5_EEOT_OT0_, symObjAddr: 0xB4DC, symBinAddr: 0x10000DC18, symSize: 0x3C }
  - { offsetInCU: 0x21AC5, offset: 0x21AC5, size: 0x8, addend: 0x0, symName: __ZNSt3__114__split_bufferI8customerRNS_9allocatorIS1_EEE7__allocB7v160006Ev, symObjAddr: 0xB558, symBinAddr: 0x10000DC94, symSize: 0x28 }
  - { offsetInCU: 0x21AEB, offset: 0x21AEB, size: 0x8, addend: 0x0, symName: __ZNSt3__114__split_bufferI8customerRNS_9allocatorIS1_EEE9__end_capB7v160006Ev, symObjAddr: 0xB580, symBinAddr: 0x10000DCBC, symSize: 0x28 }
  - { offsetInCU: 0x21B11, offset: 0x21B11, size: 0x8, addend: 0x0, symName: __ZNSt3__117__compressed_pairIP8customerRNS_9allocatorIS1_EEEC2B7v160006IDnS5_EEOT_OT0_, symObjAddr: 0xB5A8, symBinAddr: 0x10000DCE4, symSize: 0x48 }
  - { offsetInCU: 0x21B69, offset: 0x21B69, size: 0x8, addend: 0x0, symName: __ZNSt3__122__compressed_pair_elemIRNS_9allocatorI8customerEELi1ELb0EEC2B7v160006IS4_vEEOT_, symObjAddr: 0xB5F0, symBinAddr: 0x10000DD2C, symSize: 0x20 }
  - { offsetInCU: 0x21BAB, offset: 0x21BAB, size: 0x8, addend: 0x0, symName: __ZNSt3__19allocatorI8customerE8allocateB7v160006Em, symObjAddr: 0xB610, symBinAddr: 0x10000DD4C, symSize: 0x5C }
  - { offsetInCU: 0x21BDF, offset: 0x21BDF, size: 0x8, addend: 0x0, symName: __ZNSt3__117__compressed_pairIP8customerRNS_9allocatorIS1_EEE6secondB7v160006Ev, symObjAddr: 0xB66C, symBinAddr: 0x10000DDA8, symSize: 0x28 }
  - { offsetInCU: 0x21C05, offset: 0x21C05, size: 0x8, addend: 0x0, symName: __ZNSt3__122__compressed_pair_elemIRNS_9allocatorI8customerEELi1ELb0EE5__getB7v160006Ev, symObjAddr: 0xB694, symBinAddr: 0x10000DDD0, symSize: 0x18 }
  - { offsetInCU: 0x21C2B, offset: 0x21C2B, size: 0x8, addend: 0x0, symName: __ZNSt3__117__compressed_pairIP8customerRNS_9allocatorIS1_EEE5firstB7v160006Ev, symObjAddr: 0xB6AC, symBinAddr: 0x10000DDE8, symSize: 0x24 }
  - { offsetInCU: 0x21C51, offset: 0x21C51, size: 0x8, addend: 0x0, symName: __ZNSt3__116reverse_iteratorIP8customerEC1B7v160006ES2_, symObjAddr: 0xB7FC, symBinAddr: 0x10000DF38, symSize: 0x34 }
  - { offsetInCU: 0x21C89, offset: 0x21C89, size: 0x8, addend: 0x0, symName: __ZNKSt3__116reverse_iteratorIP8customerE4baseB7v160006Ev, symObjAddr: 0xB830, symBinAddr: 0x10000DF6C, symSize: 0x18 }
  - { offsetInCU: 0x21CAF, offset: 0x21CAF, size: 0x8, addend: 0x0, symName: __ZNKSt3__16vectorI8customerNS_9allocatorIS1_EEE14__annotate_newB7v160006Em, symObjAddr: 0xB884, symBinAddr: 0x10000DFC0, symSize: 0xC8 }
  - { offsetInCU: 0x21CE4, offset: 0x21CE4, size: 0x8, addend: 0x0, symName: __ZNSt3__129_AllocatorDestroyRangeReverseINS_9allocatorI8customerEENS_16reverse_iteratorIPS2_EEEC1B7v160006ERS3_RS6_S9_, symObjAddr: 0xB9A8, symBinAddr: 0x10000E0E4, symSize: 0x44 }
  - { offsetInCU: 0x21D3B, offset: 0x21D3B, size: 0x8, addend: 0x0, symName: __ZNSt3__116allocator_traitsINS_9allocatorI8customerEEE9constructB7v160006IS2_JS2_EvEEvRS3_PT_DpOT0_, symObjAddr: 0xBA34, symBinAddr: 0x10000E170, symSize: 0x34 }
  - { offsetInCU: 0x21D92, offset: 0x21D92, size: 0x8, addend: 0x0, symName: __ZNKSt3__116reverse_iteratorIP8customerEdeB7v160006Ev, symObjAddr: 0xBA8C, symBinAddr: 0x10000E1C8, symSize: 0x28 }
  - { offsetInCU: 0x21DC6, offset: 0x21DC6, size: 0x8, addend: 0x0, symName: __ZNSt3__116reverse_iteratorIP8customerEppB7v160006Ev, symObjAddr: 0xBAB4, symBinAddr: 0x10000E1F0, symSize: 0x20 }
  - { offsetInCU: 0x21DEC, offset: 0x21DEC, size: 0x8, addend: 0x0, symName: __ZNSt3__128__exception_guard_exceptionsINS_29_AllocatorDestroyRangeReverseINS_9allocatorI8customerEENS_16reverse_iteratorIPS3_EEEEE10__completeB7v160006Ev, symObjAddr: 0xBAD4, symBinAddr: 0x10000E210, symSize: 0x1C }
  - { offsetInCU: 0x21E12, offset: 0x21E12, size: 0x8, addend: 0x0, symName: __ZNSt3__128__exception_guard_exceptionsINS_29_AllocatorDestroyRangeReverseINS_9allocatorI8customerEENS_16reverse_iteratorIPS3_EEEEED1B7v160006Ev, symObjAddr: 0xBAF0, symBinAddr: 0x10000E22C, symSize: 0x2C }
  - { offsetInCU: 0x21E3C, offset: 0x21E3C, size: 0x8, addend: 0x0, symName: __ZNSt3__128__exception_guard_exceptionsINS_29_AllocatorDestroyRangeReverseINS_9allocatorI8customerEENS_16reverse_iteratorIPS3_EEEEEC1B7v160006ES8_, symObjAddr: 0xBB1C, symBinAddr: 0x10000E258, symSize: 0x34 }
  - { offsetInCU: 0x21E75, offset: 0x21E75, size: 0x8, addend: 0x0, symName: __ZNSt3__128__exception_guard_exceptionsINS_29_AllocatorDestroyRangeReverseINS_9allocatorI8customerEENS_16reverse_iteratorIPS3_EEEEEC2B7v160006ES8_, symObjAddr: 0xBB50, symBinAddr: 0x10000E28C, symSize: 0x30 }
  - { offsetInCU: 0x21EAE, offset: 0x21EAE, size: 0x8, addend: 0x0, symName: __ZNSt3__129_AllocatorDestroyRangeReverseINS_9allocatorI8customerEENS_16reverse_iteratorIPS2_EEEC2B7v160006ERS3_RS6_S9_, symObjAddr: 0xBB80, symBinAddr: 0x10000E2BC, symSize: 0x38 }
  - { offsetInCU: 0x21F05, offset: 0x21F05, size: 0x8, addend: 0x0, symName: __ZNSt3__19allocatorI8customerE9constructB7v160006IS1_JS1_EEEvPT_DpOT0_, symObjAddr: 0xBBB8, symBinAddr: 0x10000E2F4, symSize: 0x30 }
  - { offsetInCU: 0x21F5B, offset: 0x21F5B, size: 0x8, addend: 0x0, symName: __ZN8customerC1EOS_, symObjAddr: 0xBBE8, symBinAddr: 0x10000E324, symSize: 0x34 }
  - { offsetInCU: 0x21F90, offset: 0x21F90, size: 0x8, addend: 0x0, symName: __ZN8customerC2EOS_, symObjAddr: 0xBC1C, symBinAddr: 0x10000E358, symSize: 0x5C }
  - { offsetInCU: 0x21FC5, offset: 0x21FC5, size: 0x8, addend: 0x0, symName: __ZN4userC2EOS_, symObjAddr: 0xBC78, symBinAddr: 0x10000E3B4, symSize: 0x54 }
  - { offsetInCU: 0x21FFA, offset: 0x21FFA, size: 0x8, addend: 0x0, symName: __ZNSt3__16vectorI3carNS_9allocatorIS1_EEEC1B7v160006EOS4_, symObjAddr: 0xBCCC, symBinAddr: 0x10000E408, symSize: 0x34 }
  - { offsetInCU: 0x22035, offset: 0x22035, size: 0x8, addend: 0x0, symName: __ZNSt3__112basic_stringIcNS_11char_traitsIcEENS_9allocatorIcEEEC1B7v160006EOS5_, symObjAddr: 0xBD00, symBinAddr: 0x10000E43C, symSize: 0x34 }
  - { offsetInCU: 0x2206E, offset: 0x2206E, size: 0x8, addend: 0x0, symName: __ZNSt3__112basic_stringIcNS_11char_traitsIcEENS_9allocatorIcEEEC2B7v160006EOS5_, symObjAddr: 0xBD34, symBinAddr: 0x10000E470, symSize: 0x80 }
  - { offsetInCU: 0x220A7, offset: 0x220A7, size: 0x8, addend: 0x0, symName: __ZNSt3__16vectorI3carNS_9allocatorIS1_EEEC2B7v160006EOS4_, symObjAddr: 0xBDC8, symBinAddr: 0x10000E504, symSize: 0xD8 }
  - { offsetInCU: 0x220E7, offset: 0x220E7, size: 0x8, addend: 0x0, symName: __ZNSt3__119__to_address_helperINS_16reverse_iteratorIP8customerEEvE6__callB7v160006ERKS4_, symObjAddr: 0xBEA0, symBinAddr: 0x10000E5DC, symSize: 0x38 }
  - { offsetInCU: 0x2210A, offset: 0x2210A, size: 0x8, addend: 0x0, symName: __ZNKSt3__116reverse_iteratorIP8customerEptB7v160006Ev, symObjAddr: 0xBED8, symBinAddr: 0x10000E614, symSize: 0x24 }
  - { offsetInCU: 0x22130, offset: 0x22130, size: 0x8, addend: 0x0, symName: __ZNSt3__128__exception_guard_exceptionsINS_29_AllocatorDestroyRangeReverseINS_9allocatorI8customerEENS_16reverse_iteratorIPS3_EEEEED2B7v160006Ev, symObjAddr: 0xBEFC, symBinAddr: 0x10000E638, symSize: 0x50 }
  - { offsetInCU: 0x2215A, offset: 0x2215A, size: 0x8, addend: 0x0, symName: __ZNKSt3__129_AllocatorDestroyRangeReverseINS_9allocatorI8customerEENS_16reverse_iteratorIPS2_EEEclB7v160006Ev, symObjAddr: 0xBF4C, symBinAddr: 0x10000E688, symSize: 0xB4 }
  - { offsetInCU: 0x22181, offset: 0x22181, size: 0x8, addend: 0x0, symName: __ZNSt3__116reverse_iteratorINS0_IP8customerEEEC1B7v160006ES3_, symObjAddr: 0xC070, symBinAddr: 0x10000E7AC, symSize: 0x3C }
  - { offsetInCU: 0x221B9, offset: 0x221B9, size: 0x8, addend: 0x0, symName: __ZNSt3__116reverse_iteratorINS0_IP8customerEEEppB7v160006Ev, symObjAddr: 0xC130, symBinAddr: 0x10000E86C, symSize: 0x30 }
  - { offsetInCU: 0x221DF, offset: 0x221DF, size: 0x8, addend: 0x0, symName: __ZNKSt3__116reverse_iteratorINS0_IP8customerEEE4baseB7v160006Ev, symObjAddr: 0xC160, symBinAddr: 0x10000E89C, symSize: 0x24 }
  - { offsetInCU: 0x2220A, offset: 0x2220A, size: 0x8, addend: 0x0, symName: __ZNSt3__119__to_address_helperINS_16reverse_iteratorINS1_IP8customerEEEEvE6__callB7v160006ERKS5_, symObjAddr: 0xC184, symBinAddr: 0x10000E8C0, symSize: 0x38 }
  - { offsetInCU: 0x2222D, offset: 0x2222D, size: 0x8, addend: 0x0, symName: __ZNKSt3__116reverse_iteratorINS0_IP8customerEEEptB7v160006Ev, symObjAddr: 0xC1BC, symBinAddr: 0x10000E8F8, symSize: 0x24 }
  - { offsetInCU: 0x22253, offset: 0x22253, size: 0x8, addend: 0x0, symName: __ZNKSt3__116reverse_iteratorINS0_IP8customerEEEdeB7v160006Ev, symObjAddr: 0xC1E0, symBinAddr: 0x10000E91C, symSize: 0x34 }
  - { offsetInCU: 0x22287, offset: 0x22287, size: 0x8, addend: 0x0, symName: __ZNSt3__116reverse_iteratorIP8customerEmmB7v160006Ev, symObjAddr: 0xC214, symBinAddr: 0x10000E950, symSize: 0x20 }
  - { offsetInCU: 0x222AD, offset: 0x222AD, size: 0x8, addend: 0x0, symName: __ZNSt3__116reverse_iteratorINS0_IP8customerEEEC2B7v160006ES3_, symObjAddr: 0xC234, symBinAddr: 0x10000E970, symSize: 0x2C }
  - { offsetInCU: 0x222E5, offset: 0x222E5, size: 0x8, addend: 0x0, symName: __ZNSt3__116reverse_iteratorIP8customerEC2B7v160006ES2_, symObjAddr: 0xC260, symBinAddr: 0x10000E99C, symSize: 0x28 }
  - { offsetInCU: 0x2231D, offset: 0x2231D, size: 0x8, addend: 0x0, symName: __ZNSt3__114__split_bufferI8customerRNS_9allocatorIS1_EEED2Ev, symObjAddr: 0xC288, symBinAddr: 0x10000E9C4, symSize: 0x8C }
  - { offsetInCU: 0x22349, offset: 0x22349, size: 0x8, addend: 0x0, symName: __ZNSt3__114__split_bufferI8customerRNS_9allocatorIS1_EEE5clearB7v160006Ev, symObjAddr: 0xC314, symBinAddr: 0x10000EA50, symSize: 0x28 }
  - { offsetInCU: 0x2236F, offset: 0x2236F, size: 0x8, addend: 0x0, symName: __ZNKSt3__114__split_bufferI8customerRNS_9allocatorIS1_EEE8capacityB7v160006Ev, symObjAddr: 0xC33C, symBinAddr: 0x10000EA78, symSize: 0x40 }
  - { offsetInCU: 0x22395, offset: 0x22395, size: 0x8, addend: 0x0, symName: __ZNSt3__114__split_bufferI8customerRNS_9allocatorIS1_EEE17__destruct_at_endB7v160006EPS1_, symObjAddr: 0xC37C, symBinAddr: 0x10000EAB8, symSize: 0x2C }
  - { offsetInCU: 0x223C9, offset: 0x223C9, size: 0x8, addend: 0x0, symName: __ZNSt3__114__split_bufferI8customerRNS_9allocatorIS1_EEE17__destruct_at_endB7v160006EPS1_NS_17integral_constantIbLb0EEE, symObjAddr: 0xC3A8, symBinAddr: 0x10000EAE4, symSize: 0x80 }
  - { offsetInCU: 0x2240A, offset: 0x2240A, size: 0x8, addend: 0x0, symName: __ZNKSt3__114__split_bufferI8customerRNS_9allocatorIS1_EEE9__end_capB7v160006Ev, symObjAddr: 0xC428, symBinAddr: 0x10000EB64, symSize: 0x28 }
  - { offsetInCU: 0x22430, offset: 0x22430, size: 0x8, addend: 0x0, symName: __ZNKSt3__117__compressed_pairIP8customerRNS_9allocatorIS1_EEE5firstB7v160006Ev, symObjAddr: 0xC450, symBinAddr: 0x10000EB8C, symSize: 0x24 }
  - { offsetInCU: 0x22456, offset: 0x22456, size: 0x8, addend: 0x0, symName: __ZNKSt3__16vectorI3carNS_9allocatorIS1_EEE17__annotate_shrinkB7v160006Em, symObjAddr: 0xC474, symBinAddr: 0x10000EBB0, symSize: 0xD0 }
  - { offsetInCU: 0x2248B, offset: 0x2248B, size: 0x8, addend: 0x0, symName: __ZNSt3__16vectorI3carNS_9allocatorIS1_EEE22__construct_one_at_endB7v160006IJRKS1_EEEvDpOT_, symObjAddr: 0xC554, symBinAddr: 0x10000EC90, symSize: 0x90 }
  - { offsetInCU: 0x224DA, offset: 0x224DA, size: 0x8, addend: 0x0, symName: __ZNSt3__16vectorI3carNS_9allocatorIS1_EEE21__push_back_slow_pathIRKS1_EEvOT_, symObjAddr: 0xC5E4, symBinAddr: 0x10000ED20, symSize: 0xD8 }
  - { offsetInCU: 0x22538, offset: 0x22538, size: 0x8, addend: 0x0, symName: __ZNSt3__116allocator_traitsINS_9allocatorI3carEEE9constructB7v160006IS2_JRKS2_EvEEvRS3_PT_DpOT0_, symObjAddr: 0xC6BC, symBinAddr: 0x10000EDF8, symSize: 0x34 }
  - { offsetInCU: 0x2258F, offset: 0x2258F, size: 0x8, addend: 0x0, symName: __ZNSt3__19allocatorI3carE9constructB7v160006IS1_JRKS1_EEEvPT_DpOT0_, symObjAddr: 0xC6F0, symBinAddr: 0x10000EE2C, symSize: 0x30 }
  - { offsetInCU: 0x225E5, offset: 0x225E5, size: 0x8, addend: 0x0, symName: __ZNKSt3__16vectorI3carNS_9allocatorIS1_EEE11__recommendB7v160006Em, symObjAddr: 0xC720, symBinAddr: 0x10000EE5C, symSize: 0xB4 }
  - { offsetInCU: 0x2263A, offset: 0x2263A, size: 0x8, addend: 0x0, symName: __ZNSt3__114__split_bufferI3carRNS_9allocatorIS1_EEEC1EmmS4_, symObjAddr: 0xC7D4, symBinAddr: 0x10000EF10, symSize: 0x44 }
  - { offsetInCU: 0x22690, offset: 0x22690, size: 0x8, addend: 0x0, symName: __ZNSt3__114__split_bufferI3carRNS_9allocatorIS1_EEED1Ev, symObjAddr: 0xC930, symBinAddr: 0x10000F06C, symSize: 0x2C }
  - { offsetInCU: 0x226BC, offset: 0x226BC, size: 0x8, addend: 0x0, symName: __ZNSt3__114__split_bufferI3carRNS_9allocatorIS1_EEEC2EmmS4_, symObjAddr: 0xC95C, symBinAddr: 0x10000F098, symSize: 0xE0 }
  - { offsetInCU: 0x2272F, offset: 0x2272F, size: 0x8, addend: 0x0, symName: __ZNSt3__117__compressed_pairIP3carRNS_9allocatorIS1_EEEC1B7v160006IDnS5_EEOT_OT0_, symObjAddr: 0xCA3C, symBinAddr: 0x10000F178, symSize: 0x3C }
  - { offsetInCU: 0x22787, offset: 0x22787, size: 0x8, addend: 0x0, symName: __ZNSt3__114__split_bufferI3carRNS_9allocatorIS1_EEE7__allocB7v160006Ev, symObjAddr: 0xCA78, symBinAddr: 0x10000F1B4, symSize: 0x28 }
  - { offsetInCU: 0x227AD, offset: 0x227AD, size: 0x8, addend: 0x0, symName: __ZNSt3__114__split_bufferI3carRNS_9allocatorIS1_EEE9__end_capB7v160006Ev, symObjAddr: 0xCAA0, symBinAddr: 0x10000F1DC, symSize: 0x28 }
  - { offsetInCU: 0x227D3, offset: 0x227D3, size: 0x8, addend: 0x0, symName: __ZNSt3__117__compressed_pairIP3carRNS_9allocatorIS1_EEEC2B7v160006IDnS5_EEOT_OT0_, symObjAddr: 0xCAC8, symBinAddr: 0x10000F204, symSize: 0x48 }
  - { offsetInCU: 0x2282B, offset: 0x2282B, size: 0x8, addend: 0x0, symName: __ZNSt3__122__compressed_pair_elemIRNS_9allocatorI3carEELi1ELb0EEC2B7v160006IS4_vEEOT_, symObjAddr: 0xCB10, symBinAddr: 0x10000F24C, symSize: 0x20 }
  - { offsetInCU: 0x2286D, offset: 0x2286D, size: 0x8, addend: 0x0, symName: __ZNSt3__117__compressed_pairIP3carRNS_9allocatorIS1_EEE6secondB7v160006Ev, symObjAddr: 0xCB30, symBinAddr: 0x10000F26C, symSize: 0x28 }
  - { offsetInCU: 0x22893, offset: 0x22893, size: 0x8, addend: 0x0, symName: __ZNSt3__122__compressed_pair_elemIRNS_9allocatorI3carEELi1ELb0EE5__getB7v160006Ev, symObjAddr: 0xCB58, symBinAddr: 0x10000F294, symSize: 0x18 }
  - { offsetInCU: 0x228B9, offset: 0x228B9, size: 0x8, addend: 0x0, symName: __ZNSt3__117__compressed_pairIP3carRNS_9allocatorIS1_EEE5firstB7v160006Ev, symObjAddr: 0xCB70, symBinAddr: 0x10000F2AC, symSize: 0x24 }
  - { offsetInCU: 0x228DF, offset: 0x228DF, size: 0x8, addend: 0x0, symName: __ZNSt3__129_AllocatorDestroyRangeReverseINS_9allocatorI3carEENS_16reverse_iteratorIPS2_EEEC1B7v160006ERS3_RS6_S9_, symObjAddr: 0xCD38, symBinAddr: 0x10000F474, symSize: 0x44 }
  - { offsetInCU: 0x22936, offset: 0x22936, size: 0x8, addend: 0x0, symName: __ZNSt3__116allocator_traitsINS_9allocatorI3carEEE9constructB7v160006IS2_JS2_EvEEvRS3_PT_DpOT0_, symObjAddr: 0xCD7C, symBinAddr: 0x10000F4B8, symSize: 0x34 }
  - { offsetInCU: 0x2298D, offset: 0x2298D, size: 0x8, addend: 0x0, symName: __ZNSt3__128__exception_guard_exceptionsINS_29_AllocatorDestroyRangeReverseINS_9allocatorI3carEENS_16reverse_iteratorIPS3_EEEEE10__completeB7v160006Ev, symObjAddr: 0xCDB0, symBinAddr: 0x10000F4EC, symSize: 0x1C }
  - { offsetInCU: 0x229B3, offset: 0x229B3, size: 0x8, addend: 0x0, symName: __ZNSt3__128__exception_guard_exceptionsINS_29_AllocatorDestroyRangeReverseINS_9allocatorI3carEENS_16reverse_iteratorIPS3_EEEEED1B7v160006Ev, symObjAddr: 0xCDCC, symBinAddr: 0x10000F508, symSize: 0x2C }
  - { offsetInCU: 0x229DD, offset: 0x229DD, size: 0x8, addend: 0x0, symName: __ZNSt3__128__exception_guard_exceptionsINS_29_AllocatorDestroyRangeReverseINS_9allocatorI3carEENS_16reverse_iteratorIPS3_EEEEEC1B7v160006ES8_, symObjAddr: 0xCDF8, symBinAddr: 0x10000F534, symSize: 0x34 }
  - { offsetInCU: 0x22A16, offset: 0x22A16, size: 0x8, addend: 0x0, symName: __ZNSt3__128__exception_guard_exceptionsINS_29_AllocatorDestroyRangeReverseINS_9allocatorI3carEENS_16reverse_iteratorIPS3_EEEEEC2B7v160006ES8_, symObjAddr: 0xCE2C, symBinAddr: 0x10000F568, symSize: 0x30 }
  - { offsetInCU: 0x22A4F, offset: 0x22A4F, size: 0x8, addend: 0x0, symName: __ZNSt3__129_AllocatorDestroyRangeReverseINS_9allocatorI3carEENS_16reverse_iteratorIPS2_EEEC2B7v160006ERS3_RS6_S9_, symObjAddr: 0xCE5C, symBinAddr: 0x10000F598, symSize: 0x38 }
  - { offsetInCU: 0x22AA6, offset: 0x22AA6, size: 0x8, addend: 0x0, symName: __ZNSt3__19allocatorI3carE9constructB7v160006IS1_JS1_EEEvPT_DpOT0_, symObjAddr: 0xCE94, symBinAddr: 0x10000F5D0, symSize: 0x30 }
  - { offsetInCU: 0x22AFC, offset: 0x22AFC, size: 0x8, addend: 0x0, symName: __ZN3carC1EOS_, symObjAddr: 0xCEC4, symBinAddr: 0x10000F600, symSize: 0x34 }
  - { offsetInCU: 0x22B31, offset: 0x22B31, size: 0x8, addend: 0x0, symName: __ZN3carC2EOS_, symObjAddr: 0xCEF8, symBinAddr: 0x10000F634, symSize: 0x48 }
  - { offsetInCU: 0x22B66, offset: 0x22B66, size: 0x8, addend: 0x0, symName: __ZNSt3__128__exception_guard_exceptionsINS_29_AllocatorDestroyRangeReverseINS_9allocatorI3carEENS_16reverse_iteratorIPS3_EEEEED2B7v160006Ev, symObjAddr: 0xCF40, symBinAddr: 0x10000F67C, symSize: 0x50 }
  - { offsetInCU: 0x22B90, offset: 0x22B90, size: 0x8, addend: 0x0, symName: __ZNKSt3__129_AllocatorDestroyRangeReverseINS_9allocatorI3carEENS_16reverse_iteratorIPS2_EEEclB7v160006Ev, symObjAddr: 0xCF90, symBinAddr: 0x10000F6CC, symSize: 0xB4 }
  - { offsetInCU: 0x22BB7, offset: 0x22BB7, size: 0x8, addend: 0x0, symName: __ZNSt3__116reverse_iteratorINS0_IP3carEEEC1B7v160006ES3_, symObjAddr: 0xD0B4, symBinAddr: 0x10000F7F0, symSize: 0x3C }
  - { offsetInCU: 0x22BEF, offset: 0x22BEF, size: 0x8, addend: 0x0, symName: __ZNSt3__116reverse_iteratorINS0_IP3carEEEppB7v160006Ev, symObjAddr: 0xD174, symBinAddr: 0x10000F8B0, symSize: 0x30 }
  - { offsetInCU: 0x22C15, offset: 0x22C15, size: 0x8, addend: 0x0, symName: __ZNKSt3__116reverse_iteratorINS0_IP3carEEE4baseB7v160006Ev, symObjAddr: 0xD1A4, symBinAddr: 0x10000F8E0, symSize: 0x24 }
  - { offsetInCU: 0x22C40, offset: 0x22C40, size: 0x8, addend: 0x0, symName: __ZNSt3__119__to_address_helperINS_16reverse_iteratorINS1_IP3carEEEEvE6__callB7v160006ERKS5_, symObjAddr: 0xD1C8, symBinAddr: 0x10000F904, symSize: 0x38 }
  - { offsetInCU: 0x22C63, offset: 0x22C63, size: 0x8, addend: 0x0, symName: __ZNKSt3__116reverse_iteratorINS0_IP3carEEEptB7v160006Ev, symObjAddr: 0xD200, symBinAddr: 0x10000F93C, symSize: 0x24 }
  - { offsetInCU: 0x22C89, offset: 0x22C89, size: 0x8, addend: 0x0, symName: __ZNKSt3__116reverse_iteratorINS0_IP3carEEEdeB7v160006Ev, symObjAddr: 0xD224, symBinAddr: 0x10000F960, symSize: 0x34 }
  - { offsetInCU: 0x22CBD, offset: 0x22CBD, size: 0x8, addend: 0x0, symName: __ZNSt3__116reverse_iteratorIP3carEmmB7v160006Ev, symObjAddr: 0xD258, symBinAddr: 0x10000F994, symSize: 0x20 }
  - { offsetInCU: 0x22CE3, offset: 0x22CE3, size: 0x8, addend: 0x0, symName: __ZNSt3__116reverse_iteratorINS0_IP3carEEEC2B7v160006ES3_, symObjAddr: 0xD278, symBinAddr: 0x10000F9B4, symSize: 0x2C }
  - { offsetInCU: 0x22D1B, offset: 0x22D1B, size: 0x8, addend: 0x0, symName: __ZNSt3__114__split_bufferI3carRNS_9allocatorIS1_EEED2Ev, symObjAddr: 0xD2A4, symBinAddr: 0x10000F9E0, symSize: 0x8C }
  - { offsetInCU: 0x22D47, offset: 0x22D47, size: 0x8, addend: 0x0, symName: __ZNSt3__114__split_bufferI3carRNS_9allocatorIS1_EEE5clearB7v160006Ev, symObjAddr: 0xD330, symBinAddr: 0x10000FA6C, symSize: 0x28 }
  - { offsetInCU: 0x22D6D, offset: 0x22D6D, size: 0x8, addend: 0x0, symName: __ZNKSt3__114__split_bufferI3carRNS_9allocatorIS1_EEE8capacityB7v160006Ev, symObjAddr: 0xD358, symBinAddr: 0x10000FA94, symSize: 0x40 }
  - { offsetInCU: 0x22D93, offset: 0x22D93, size: 0x8, addend: 0x0, symName: __ZNSt3__114__split_bufferI3carRNS_9allocatorIS1_EEE17__destruct_at_endB7v160006EPS1_, symObjAddr: 0xD398, symBinAddr: 0x10000FAD4, symSize: 0x2C }
  - { offsetInCU: 0x22DC7, offset: 0x22DC7, size: 0x8, addend: 0x0, symName: __ZNSt3__114__split_bufferI3carRNS_9allocatorIS1_EEE17__destruct_at_endB7v160006EPS1_NS_17integral_constantIbLb0EEE, symObjAddr: 0xD3C4, symBinAddr: 0x10000FB00, symSize: 0x80 }
  - { offsetInCU: 0x22E08, offset: 0x22E08, size: 0x8, addend: 0x0, symName: __ZNKSt3__114__split_bufferI3carRNS_9allocatorIS1_EEE9__end_capB7v160006Ev, symObjAddr: 0xD444, symBinAddr: 0x10000FB80, symSize: 0x28 }
  - { offsetInCU: 0x22E2E, offset: 0x22E2E, size: 0x8, addend: 0x0, symName: __ZNKSt3__117__compressed_pairIP3carRNS_9allocatorIS1_EEE5firstB7v160006Ev, symObjAddr: 0xD46C, symBinAddr: 0x10000FBA8, symSize: 0x24 }
  - { offsetInCU: 0x22E54, offset: 0x22E54, size: 0x8, addend: 0x0, symName: __ZNSt3__113basic_ostreamIcNS_11char_traitsIcEEEC2B7v160006EPNS_15basic_streambufIcS2_EE, symObjAddr: 0xD490, symBinAddr: 0x10000FBCC, symSize: 0x60 }
  - { offsetInCU: 0x22E99, offset: 0x22E99, size: 0x8, addend: 0x0, symName: __ZNSt3__16vectorI8employeeNS_9allocatorIS1_EEED2B7v160006Ev, symObjAddr: 0xD4F0, symBinAddr: 0x10000FC2C, symSize: 0x44 }
  - { offsetInCU: 0x22EC3, offset: 0x22EC3, size: 0x8, addend: 0x0, symName: __ZNSt3__16vectorI8employeeNS_9allocatorIS1_EEE16__destroy_vectorC1ERS4_, symObjAddr: 0xD534, symBinAddr: 0x10000FC70, symSize: 0x34 }
  - { offsetInCU: 0x22EFC, offset: 0x22EFC, size: 0x8, addend: 0x0, symName: __ZNSt3__16vectorI8employeeNS_9allocatorIS1_EEE16__destroy_vectorclB7v160006Ev, symObjAddr: 0xD568, symBinAddr: 0x10000FCA4, symSize: 0x9C }
  - { offsetInCU: 0x22F22, offset: 0x22F22, size: 0x8, addend: 0x0, symName: __ZNSt3__16vectorI8employeeNS_9allocatorIS1_EEE16__destroy_vectorC2ERS4_, symObjAddr: 0xD604, symBinAddr: 0x10000FD40, symSize: 0x20 }
  - { offsetInCU: 0x22F5B, offset: 0x22F5B, size: 0x8, addend: 0x0, symName: __ZNKSt3__16vectorI8employeeNS_9allocatorIS1_EEE17__annotate_deleteB7v160006Ev, symObjAddr: 0xD624, symBinAddr: 0x10000FD60, symSize: 0xD4 }
  - { offsetInCU: 0x22F81, offset: 0x22F81, size: 0x8, addend: 0x0, symName: __ZNSt3__16vectorI8employeeNS_9allocatorIS1_EEE7__clearB7v160006Ev, symObjAddr: 0xD708, symBinAddr: 0x10000FE44, symSize: 0x28 }
  - { offsetInCU: 0x22FA7, offset: 0x22FA7, size: 0x8, addend: 0x0, symName: __ZNSt3__116allocator_traitsINS_9allocatorI8employeeEEE10deallocateB7v160006ERS3_PS2_m, symObjAddr: 0xD730, symBinAddr: 0x10000FE6C, symSize: 0x34 }
  - { offsetInCU: 0x22FE9, offset: 0x22FE9, size: 0x8, addend: 0x0, symName: __ZNSt3__16vectorI8employeeNS_9allocatorIS1_EEE7__allocB7v160006Ev, symObjAddr: 0xD764, symBinAddr: 0x10000FEA0, symSize: 0x28 }
  - { offsetInCU: 0x2300F, offset: 0x2300F, size: 0x8, addend: 0x0, symName: __ZNKSt3__16vectorI8employeeNS_9allocatorIS1_EEE8capacityB7v160006Ev, symObjAddr: 0xD78C, symBinAddr: 0x10000FEC8, symSize: 0x40 }
  - { offsetInCU: 0x23035, offset: 0x23035, size: 0x8, addend: 0x0, symName: __ZNKSt3__16vectorI8employeeNS_9allocatorIS1_EEE31__annotate_contiguous_containerB7v160006EPKvS6_S6_S6_, symObjAddr: 0xD7CC, symBinAddr: 0x10000FF08, symSize: 0x20 }
  - { offsetInCU: 0x2308B, offset: 0x2308B, size: 0x8, addend: 0x0, symName: __ZNKSt3__16vectorI8employeeNS_9allocatorIS1_EEE4dataB7v160006Ev, symObjAddr: 0xD7EC, symBinAddr: 0x10000FF28, symSize: 0x28 }
  - { offsetInCU: 0x230B1, offset: 0x230B1, size: 0x8, addend: 0x0, symName: __ZNKSt3__16vectorI8employeeNS_9allocatorIS1_EEE4sizeB7v160006Ev, symObjAddr: 0xD814, symBinAddr: 0x10000FF50, symSize: 0x28 }
  - { offsetInCU: 0x230D7, offset: 0x230D7, size: 0x8, addend: 0x0, symName: __ZNSt3__16vectorI8employeeNS_9allocatorIS1_EEE22__base_destruct_at_endB7v160006EPS1_, symObjAddr: 0xD850, symBinAddr: 0x10000FF8C, symSize: 0x8C }
  - { offsetInCU: 0x2311B, offset: 0x2311B, size: 0x8, addend: 0x0, symName: __ZNSt3__116allocator_traitsINS_9allocatorI8employeeEEE7destroyB7v160006IS2_vEEvRS3_PT_, symObjAddr: 0xD8DC, symBinAddr: 0x100010018, symSize: 0x2C }
  - { offsetInCU: 0x23158, offset: 0x23158, size: 0x8, addend: 0x0, symName: __ZNSt3__19allocatorI8employeeE7destroyB7v160006EPS1_, symObjAddr: 0xD908, symBinAddr: 0x100010044, symSize: 0x28 }
  - { offsetInCU: 0x2318C, offset: 0x2318C, size: 0x8, addend: 0x0, symName: __ZNSt3__19allocatorI8employeeE10deallocateB7v160006EPS1_m, symObjAddr: 0xD930, symBinAddr: 0x10001006C, symSize: 0x44 }
  - { offsetInCU: 0x231CE, offset: 0x231CE, size: 0x8, addend: 0x0, symName: __ZNSt3__117__compressed_pairIP8employeeNS_9allocatorIS1_EEE6secondB7v160006Ev, symObjAddr: 0xD974, symBinAddr: 0x1000100B0, symSize: 0x24 }
  - { offsetInCU: 0x231F4, offset: 0x231F4, size: 0x8, addend: 0x0, symName: __ZNSt3__122__compressed_pair_elemINS_9allocatorI8employeeEELi1ELb1EE5__getB7v160006Ev, symObjAddr: 0xD998, symBinAddr: 0x1000100D4, symSize: 0x14 }
  - { offsetInCU: 0x2321A, offset: 0x2321A, size: 0x8, addend: 0x0, symName: __ZNKSt3__16vectorI8employeeNS_9allocatorIS1_EEE9__end_capB7v160006Ev, symObjAddr: 0xD9AC, symBinAddr: 0x1000100E8, symSize: 0x28 }
  - { offsetInCU: 0x23240, offset: 0x23240, size: 0x8, addend: 0x0, symName: __ZNKSt3__117__compressed_pairIP8employeeNS_9allocatorIS1_EEE5firstB7v160006Ev, symObjAddr: 0xD9D4, symBinAddr: 0x100010110, symSize: 0x24 }
  - { offsetInCU: 0x23266, offset: 0x23266, size: 0x8, addend: 0x0, symName: __ZNKSt3__122__compressed_pair_elemIP8employeeLi0ELb0EE5__getB7v160006Ev, symObjAddr: 0xD9F8, symBinAddr: 0x100010134, symSize: 0x14 }
  - { offsetInCU: 0x2328C, offset: 0x2328C, size: 0x8, addend: 0x0, symName: __ZNSt3__16vectorI8employeeNS_9allocatorIS1_EEE11__make_iterB7v160006EPS1_, symObjAddr: 0xDA0C, symBinAddr: 0x100010148, symSize: 0x34 }
  - { offsetInCU: 0x232C1, offset: 0x232C1, size: 0x8, addend: 0x0, symName: __ZNSt3__111__wrap_iterIP8employeeEC1B7v160006EPKvS2_, symObjAddr: 0xDA40, symBinAddr: 0x10001017C, symSize: 0x3C }
  - { offsetInCU: 0x23307, offset: 0x23307, size: 0x8, addend: 0x0, symName: __ZNSt3__111__wrap_iterIP8employeeEC2B7v160006EPKvS2_, symObjAddr: 0xDA7C, symBinAddr: 0x1000101B8, symSize: 0x24 }
  - { offsetInCU: 0x2334D, offset: 0x2334D, size: 0x8, addend: 0x0, symName: __ZNSt3__16vectorI8employeeNS_9allocatorIS1_EEEC2B7v160006Ev, symObjAddr: 0xDAA0, symBinAddr: 0x1000101DC, symSize: 0x58 }
  - { offsetInCU: 0x23377, offset: 0x23377, size: 0x8, addend: 0x0, symName: __ZNSt3__117__compressed_pairIP8employeeNS_9allocatorIS1_EEEC1B7v160006IDnNS_18__default_init_tagEEEOT_OT0_, symObjAddr: 0xDAF8, symBinAddr: 0x100010234, symSize: 0x3C }
  - { offsetInCU: 0x233CF, offset: 0x233CF, size: 0x8, addend: 0x0, symName: __ZNSt3__117__compressed_pairIP8employeeNS_9allocatorIS1_EEEC2B7v160006IDnNS_18__default_init_tagEEEOT_OT0_, symObjAddr: 0xDB44, symBinAddr: 0x100010280, symSize: 0x40 }
  - { offsetInCU: 0x23427, offset: 0x23427, size: 0x8, addend: 0x0, symName: __ZNSt3__122__compressed_pair_elemIP8employeeLi0ELb0EEC2B7v160006IDnvEEOT_, symObjAddr: 0xDB84, symBinAddr: 0x1000102C0, symSize: 0x1C }
  - { offsetInCU: 0x23469, offset: 0x23469, size: 0x8, addend: 0x0, symName: __ZNSt3__122__compressed_pair_elemINS_9allocatorI8employeeEELi1ELb1EEC2B7v160006ENS_18__default_init_tagE, symObjAddr: 0xDBA0, symBinAddr: 0x1000102DC, symSize: 0x2C }
  - { offsetInCU: 0x2349E, offset: 0x2349E, size: 0x8, addend: 0x0, symName: __ZNSt3__19allocatorI8employeeEC2B7v160006Ev, symObjAddr: 0xDBCC, symBinAddr: 0x100010308, symSize: 0x2C }
  - { offsetInCU: 0x234C8, offset: 0x234C8, size: 0x8, addend: 0x0, symName: __ZNSt3__116__non_trivial_ifILb1ENS_9allocatorI8employeeEEEC2B7v160006Ev, symObjAddr: 0xDBF8, symBinAddr: 0x100010334, symSize: 0x14 }
  - { offsetInCU: 0x234F2, offset: 0x234F2, size: 0x8, addend: 0x0, symName: __ZNSt3__16vectorI8employeeNS_9allocatorIS1_EEE9__end_capB7v160006Ev, symObjAddr: 0xDC0C, symBinAddr: 0x100010348, symSize: 0x28 }
  - { offsetInCU: 0x23518, offset: 0x23518, size: 0x8, addend: 0x0, symName: __ZNSt3__16vectorI8employeeNS_9allocatorIS1_EEE22__construct_one_at_endB7v160006IJRKS1_EEEvDpOT_, symObjAddr: 0xDC34, symBinAddr: 0x100010370, symSize: 0x90 }
  - { offsetInCU: 0x23567, offset: 0x23567, size: 0x8, addend: 0x0, symName: __ZNSt3__16vectorI8employeeNS_9allocatorIS1_EEE21__push_back_slow_pathIRKS1_EEvOT_, symObjAddr: 0xDCC4, symBinAddr: 0x100010400, symSize: 0xD8 }
  - { offsetInCU: 0x235C5, offset: 0x235C5, size: 0x8, addend: 0x0, symName: __ZNSt3__117__compressed_pairIP8employeeNS_9allocatorIS1_EEE5firstB7v160006Ev, symObjAddr: 0xDD9C, symBinAddr: 0x1000104D8, symSize: 0x24 }
  - { offsetInCU: 0x235EB, offset: 0x235EB, size: 0x8, addend: 0x0, symName: __ZNSt3__122__compressed_pair_elemIP8employeeLi0ELb0EE5__getB7v160006Ev, symObjAddr: 0xDDC0, symBinAddr: 0x1000104FC, symSize: 0x14 }
  - { offsetInCU: 0x2362A, offset: 0x2362A, size: 0x8, addend: 0x0, symName: __ZNSt3__16vectorI8employeeNS_9allocatorIS1_EEE21_ConstructTransactionC1B7v160006ERS4_m, symObjAddr: 0xDDD4, symBinAddr: 0x100010510, symSize: 0x3C }
  - { offsetInCU: 0x23672, offset: 0x23672, size: 0x8, addend: 0x0, symName: __ZNSt3__116allocator_traitsINS_9allocatorI8employeeEEE9constructB7v160006IS2_JRKS2_EvEEvRS3_PT_DpOT0_, symObjAddr: 0xDE10, symBinAddr: 0x10001054C, symSize: 0x34 }
  - { offsetInCU: 0x236C9, offset: 0x236C9, size: 0x8, addend: 0x0, symName: __ZNSt3__16vectorI8employeeNS_9allocatorIS1_EEE21_ConstructTransactionD1B7v160006Ev, symObjAddr: 0xDE44, symBinAddr: 0x100010580, symSize: 0x2C }
  - { offsetInCU: 0x236F3, offset: 0x236F3, size: 0x8, addend: 0x0, symName: __ZNSt3__16vectorI8employeeNS_9allocatorIS1_EEE21_ConstructTransactionC2B7v160006ERS4_m, symObjAddr: 0xDE70, symBinAddr: 0x1000105AC, symSize: 0x4C }
  - { offsetInCU: 0x2373B, offset: 0x2373B, size: 0x8, addend: 0x0, symName: __ZNSt3__19allocatorI8employeeE9constructB7v160006IS1_JRKS1_EEEvPT_DpOT0_, symObjAddr: 0xDEBC, symBinAddr: 0x1000105F8, symSize: 0x30 }
  - { offsetInCU: 0x23791, offset: 0x23791, size: 0x8, addend: 0x0, symName: __ZNSt3__16vectorI8employeeNS_9allocatorIS1_EEE21_ConstructTransactionD2B7v160006Ev, symObjAddr: 0xDEEC, symBinAddr: 0x100010628, symSize: 0x20 }
  - { offsetInCU: 0x237BB, offset: 0x237BB, size: 0x8, addend: 0x0, symName: __ZNKSt3__16vectorI8employeeNS_9allocatorIS1_EEE11__recommendB7v160006Em, symObjAddr: 0xDF0C, symBinAddr: 0x100010648, symSize: 0xB4 }
  - { offsetInCU: 0x23810, offset: 0x23810, size: 0x8, addend: 0x0, symName: __ZNSt3__114__split_bufferI8employeeRNS_9allocatorIS1_EEEC1EmmS4_, symObjAddr: 0xDFC0, symBinAddr: 0x1000106FC, symSize: 0x44 }
  - { offsetInCU: 0x23866, offset: 0x23866, size: 0x8, addend: 0x0, symName: __ZNSt3__114__split_bufferI8employeeRNS_9allocatorIS1_EEED1Ev, symObjAddr: 0xE11C, symBinAddr: 0x100010858, symSize: 0x2C }
  - { offsetInCU: 0x23892, offset: 0x23892, size: 0x8, addend: 0x0, symName: __ZNKSt3__16vectorI8employeeNS_9allocatorIS1_EEE8max_sizeEv, symObjAddr: 0xE148, symBinAddr: 0x100010884, symSize: 0x60 }
  - { offsetInCU: 0x238BA, offset: 0x238BA, size: 0x8, addend: 0x0, symName: __ZNKSt3__16vectorI8employeeNS_9allocatorIS1_EEE20__throw_length_errorB7v160006Ev, symObjAddr: 0xE1A8, symBinAddr: 0x1000108E4, symSize: 0x1C }
  - { offsetInCU: 0x238EA, offset: 0x238EA, size: 0x8, addend: 0x0, symName: __ZNSt3__116allocator_traitsINS_9allocatorI8employeeEEE8max_sizeB7v160006IS3_vEEmRKS3_, symObjAddr: 0xE1C4, symBinAddr: 0x100010900, symSize: 0x24 }
  - { offsetInCU: 0x23918, offset: 0x23918, size: 0x8, addend: 0x0, symName: __ZNKSt3__16vectorI8employeeNS_9allocatorIS1_EEE7__allocB7v160006Ev, symObjAddr: 0xE1E8, symBinAddr: 0x100010924, symSize: 0x28 }
  - { offsetInCU: 0x2393E, offset: 0x2393E, size: 0x8, addend: 0x0, symName: __ZNKSt3__19allocatorI8employeeE8max_sizeB7v160006Ev, symObjAddr: 0xE210, symBinAddr: 0x10001094C, symSize: 0x18 }
  - { offsetInCU: 0x23964, offset: 0x23964, size: 0x8, addend: 0x0, symName: __ZNKSt3__117__compressed_pairIP8employeeNS_9allocatorIS1_EEE6secondB7v160006Ev, symObjAddr: 0xE228, symBinAddr: 0x100010964, symSize: 0x24 }
  - { offsetInCU: 0x2398A, offset: 0x2398A, size: 0x8, addend: 0x0, symName: __ZNKSt3__122__compressed_pair_elemINS_9allocatorI8employeeEELi1ELb1EE5__getB7v160006Ev, symObjAddr: 0xE24C, symBinAddr: 0x100010988, symSize: 0x14 }
  - { offsetInCU: 0x239B0, offset: 0x239B0, size: 0x8, addend: 0x0, symName: __ZNSt3__114__split_bufferI8employeeRNS_9allocatorIS1_EEEC2EmmS4_, symObjAddr: 0xE260, symBinAddr: 0x10001099C, symSize: 0xE0 }
  - { offsetInCU: 0x23A23, offset: 0x23A23, size: 0x8, addend: 0x0, symName: __ZNSt3__117__compressed_pairIP8employeeRNS_9allocatorIS1_EEEC1B7v160006IDnS5_EEOT_OT0_, symObjAddr: 0xE340, symBinAddr: 0x100010A7C, symSize: 0x3C }
  - { offsetInCU: 0x23A7B, offset: 0x23A7B, size: 0x8, addend: 0x0, symName: __ZNSt3__114__split_bufferI8employeeRNS_9allocatorIS1_EEE7__allocB7v160006Ev, symObjAddr: 0xE3BC, symBinAddr: 0x100010AF8, symSize: 0x28 }
  - { offsetInCU: 0x23AA1, offset: 0x23AA1, size: 0x8, addend: 0x0, symName: __ZNSt3__114__split_bufferI8employeeRNS_9allocatorIS1_EEE9__end_capB7v160006Ev, symObjAddr: 0xE3E4, symBinAddr: 0x100010B20, symSize: 0x28 }
  - { offsetInCU: 0x23AC7, offset: 0x23AC7, size: 0x8, addend: 0x0, symName: __ZNSt3__117__compressed_pairIP8employeeRNS_9allocatorIS1_EEEC2B7v160006IDnS5_EEOT_OT0_, symObjAddr: 0xE40C, symBinAddr: 0x100010B48, symSize: 0x48 }
  - { offsetInCU: 0x23B1F, offset: 0x23B1F, size: 0x8, addend: 0x0, symName: __ZNSt3__122__compressed_pair_elemIRNS_9allocatorI8employeeEELi1ELb0EEC2B7v160006IS4_vEEOT_, symObjAddr: 0xE454, symBinAddr: 0x100010B90, symSize: 0x20 }
  - { offsetInCU: 0x23B61, offset: 0x23B61, size: 0x8, addend: 0x0, symName: __ZNSt3__19allocatorI8employeeE8allocateB7v160006Em, symObjAddr: 0xE474, symBinAddr: 0x100010BB0, symSize: 0x5C }
  - { offsetInCU: 0x23B95, offset: 0x23B95, size: 0x8, addend: 0x0, symName: __ZNSt3__117__compressed_pairIP8employeeRNS_9allocatorIS1_EEE6secondB7v160006Ev, symObjAddr: 0xE4D0, symBinAddr: 0x100010C0C, symSize: 0x28 }
  - { offsetInCU: 0x23BBB, offset: 0x23BBB, size: 0x8, addend: 0x0, symName: __ZNSt3__122__compressed_pair_elemIRNS_9allocatorI8employeeEELi1ELb0EE5__getB7v160006Ev, symObjAddr: 0xE4F8, symBinAddr: 0x100010C34, symSize: 0x18 }
  - { offsetInCU: 0x23BE1, offset: 0x23BE1, size: 0x8, addend: 0x0, symName: __ZNSt3__117__compressed_pairIP8employeeRNS_9allocatorIS1_EEE5firstB7v160006Ev, symObjAddr: 0xE510, symBinAddr: 0x100010C4C, symSize: 0x24 }
  - { offsetInCU: 0x23C07, offset: 0x23C07, size: 0x8, addend: 0x0, symName: __ZNSt3__116reverse_iteratorIP8employeeEC1B7v160006ES2_, symObjAddr: 0xE660, symBinAddr: 0x100010D9C, symSize: 0x34 }
  - { offsetInCU: 0x23C3F, offset: 0x23C3F, size: 0x8, addend: 0x0, symName: __ZNKSt3__116reverse_iteratorIP8employeeE4baseB7v160006Ev, symObjAddr: 0xE694, symBinAddr: 0x100010DD0, symSize: 0x18 }
  - { offsetInCU: 0x23C65, offset: 0x23C65, size: 0x8, addend: 0x0, symName: __ZNKSt3__16vectorI8employeeNS_9allocatorIS1_EEE14__annotate_newB7v160006Em, symObjAddr: 0xE6E8, symBinAddr: 0x100010E24, symSize: 0xC8 }
  - { offsetInCU: 0x23C9A, offset: 0x23C9A, size: 0x8, addend: 0x0, symName: __ZNSt3__129_AllocatorDestroyRangeReverseINS_9allocatorI8employeeEENS_16reverse_iteratorIPS2_EEEC1B7v160006ERS3_RS6_S9_, symObjAddr: 0xE80C, symBinAddr: 0x100010F48, symSize: 0x44 }
  - { offsetInCU: 0x23CF1, offset: 0x23CF1, size: 0x8, addend: 0x0, symName: __ZNSt3__116allocator_traitsINS_9allocatorI8employeeEEE9constructB7v160006IS2_JS2_EvEEvRS3_PT_DpOT0_, symObjAddr: 0xE898, symBinAddr: 0x100010FD4, symSize: 0x34 }
  - { offsetInCU: 0x23D48, offset: 0x23D48, size: 0x8, addend: 0x0, symName: __ZNKSt3__116reverse_iteratorIP8employeeEdeB7v160006Ev, symObjAddr: 0xE8F0, symBinAddr: 0x10001102C, symSize: 0x28 }
  - { offsetInCU: 0x23D7C, offset: 0x23D7C, size: 0x8, addend: 0x0, symName: __ZNSt3__116reverse_iteratorIP8employeeEppB7v160006Ev, symObjAddr: 0xE918, symBinAddr: 0x100011054, symSize: 0x20 }
  - { offsetInCU: 0x23DA2, offset: 0x23DA2, size: 0x8, addend: 0x0, symName: __ZNSt3__128__exception_guard_exceptionsINS_29_AllocatorDestroyRangeReverseINS_9allocatorI8employeeEENS_16reverse_iteratorIPS3_EEEEE10__completeB7v160006Ev, symObjAddr: 0xE938, symBinAddr: 0x100011074, symSize: 0x1C }
  - { offsetInCU: 0x23DC8, offset: 0x23DC8, size: 0x8, addend: 0x0, symName: __ZNSt3__128__exception_guard_exceptionsINS_29_AllocatorDestroyRangeReverseINS_9allocatorI8employeeEENS_16reverse_iteratorIPS3_EEEEED1B7v160006Ev, symObjAddr: 0xE954, symBinAddr: 0x100011090, symSize: 0x2C }
  - { offsetInCU: 0x23DF2, offset: 0x23DF2, size: 0x8, addend: 0x0, symName: __ZNSt3__128__exception_guard_exceptionsINS_29_AllocatorDestroyRangeReverseINS_9allocatorI8employeeEENS_16reverse_iteratorIPS3_EEEEEC1B7v160006ES8_, symObjAddr: 0xE980, symBinAddr: 0x1000110BC, symSize: 0x34 }
  - { offsetInCU: 0x23E2B, offset: 0x23E2B, size: 0x8, addend: 0x0, symName: __ZNSt3__128__exception_guard_exceptionsINS_29_AllocatorDestroyRangeReverseINS_9allocatorI8employeeEENS_16reverse_iteratorIPS3_EEEEEC2B7v160006ES8_, symObjAddr: 0xE9B4, symBinAddr: 0x1000110F0, symSize: 0x30 }
  - { offsetInCU: 0x23E64, offset: 0x23E64, size: 0x8, addend: 0x0, symName: __ZNSt3__129_AllocatorDestroyRangeReverseINS_9allocatorI8employeeEENS_16reverse_iteratorIPS2_EEEC2B7v160006ERS3_RS6_S9_, symObjAddr: 0xE9E4, symBinAddr: 0x100011120, symSize: 0x38 }
  - { offsetInCU: 0x23EBB, offset: 0x23EBB, size: 0x8, addend: 0x0, symName: __ZNSt3__19allocatorI8employeeE9constructB7v160006IS1_JS1_EEEvPT_DpOT0_, symObjAddr: 0xEA1C, symBinAddr: 0x100011158, symSize: 0x30 }
  - { offsetInCU: 0x23F11, offset: 0x23F11, size: 0x8, addend: 0x0, symName: __ZN8employeeC1EOS_, symObjAddr: 0xEA4C, symBinAddr: 0x100011188, symSize: 0x34 }
  - { offsetInCU: 0x23F46, offset: 0x23F46, size: 0x8, addend: 0x0, symName: __ZN8employeeC2EOS_, symObjAddr: 0xEA80, symBinAddr: 0x1000111BC, symSize: 0x5C }
  - { offsetInCU: 0x23F80, offset: 0x23F80, size: 0x8, addend: 0x0, symName: __ZNSt3__119__to_address_helperINS_16reverse_iteratorIP8employeeEEvE6__callB7v160006ERKS4_, symObjAddr: 0xEADC, symBinAddr: 0x100011218, symSize: 0x38 }
  - { offsetInCU: 0x23FA3, offset: 0x23FA3, size: 0x8, addend: 0x0, symName: __ZNKSt3__116reverse_iteratorIP8employeeEptB7v160006Ev, symObjAddr: 0xEB14, symBinAddr: 0x100011250, symSize: 0x24 }
  - { offsetInCU: 0x23FC9, offset: 0x23FC9, size: 0x8, addend: 0x0, symName: __ZNSt3__128__exception_guard_exceptionsINS_29_AllocatorDestroyRangeReverseINS_9allocatorI8employeeEENS_16reverse_iteratorIPS3_EEEEED2B7v160006Ev, symObjAddr: 0xEB38, symBinAddr: 0x100011274, symSize: 0x50 }
  - { offsetInCU: 0x23FF3, offset: 0x23FF3, size: 0x8, addend: 0x0, symName: __ZNKSt3__129_AllocatorDestroyRangeReverseINS_9allocatorI8employeeEENS_16reverse_iteratorIPS2_EEEclB7v160006Ev, symObjAddr: 0xEB88, symBinAddr: 0x1000112C4, symSize: 0xB4 }
  - { offsetInCU: 0x2401A, offset: 0x2401A, size: 0x8, addend: 0x0, symName: __ZNSt3__116reverse_iteratorINS0_IP8employeeEEEC1B7v160006ES3_, symObjAddr: 0xECAC, symBinAddr: 0x1000113E8, symSize: 0x3C }
  - { offsetInCU: 0x24052, offset: 0x24052, size: 0x8, addend: 0x0, symName: __ZNSt3__116reverse_iteratorINS0_IP8employeeEEEppB7v160006Ev, symObjAddr: 0xED6C, symBinAddr: 0x1000114A8, symSize: 0x30 }
  - { offsetInCU: 0x24078, offset: 0x24078, size: 0x8, addend: 0x0, symName: __ZNKSt3__116reverse_iteratorINS0_IP8employeeEEE4baseB7v160006Ev, symObjAddr: 0xED9C, symBinAddr: 0x1000114D8, symSize: 0x24 }
  - { offsetInCU: 0x240A3, offset: 0x240A3, size: 0x8, addend: 0x0, symName: __ZNSt3__119__to_address_helperINS_16reverse_iteratorINS1_IP8employeeEEEEvE6__callB7v160006ERKS5_, symObjAddr: 0xEDC0, symBinAddr: 0x1000114FC, symSize: 0x38 }
  - { offsetInCU: 0x240C6, offset: 0x240C6, size: 0x8, addend: 0x0, symName: __ZNKSt3__116reverse_iteratorINS0_IP8employeeEEEptB7v160006Ev, symObjAddr: 0xEDF8, symBinAddr: 0x100011534, symSize: 0x24 }
  - { offsetInCU: 0x240EC, offset: 0x240EC, size: 0x8, addend: 0x0, symName: __ZNKSt3__116reverse_iteratorINS0_IP8employeeEEEdeB7v160006Ev, symObjAddr: 0xEE1C, symBinAddr: 0x100011558, symSize: 0x34 }
  - { offsetInCU: 0x24120, offset: 0x24120, size: 0x8, addend: 0x0, symName: __ZNSt3__116reverse_iteratorIP8employeeEmmB7v160006Ev, symObjAddr: 0xEE50, symBinAddr: 0x10001158C, symSize: 0x20 }
  - { offsetInCU: 0x24146, offset: 0x24146, size: 0x8, addend: 0x0, symName: __ZNSt3__116reverse_iteratorINS0_IP8employeeEEEC2B7v160006ES3_, symObjAddr: 0xEE70, symBinAddr: 0x1000115AC, symSize: 0x2C }
  - { offsetInCU: 0x2417E, offset: 0x2417E, size: 0x8, addend: 0x0, symName: __ZNSt3__116reverse_iteratorIP8employeeEC2B7v160006ES2_, symObjAddr: 0xEE9C, symBinAddr: 0x1000115D8, symSize: 0x28 }
  - { offsetInCU: 0x241B6, offset: 0x241B6, size: 0x8, addend: 0x0, symName: __ZNSt3__114__split_bufferI8employeeRNS_9allocatorIS1_EEED2Ev, symObjAddr: 0xEEC4, symBinAddr: 0x100011600, symSize: 0x8C }
  - { offsetInCU: 0x241E2, offset: 0x241E2, size: 0x8, addend: 0x0, symName: __ZNSt3__114__split_bufferI8employeeRNS_9allocatorIS1_EEE5clearB7v160006Ev, symObjAddr: 0xEF50, symBinAddr: 0x10001168C, symSize: 0x28 }
  - { offsetInCU: 0x24208, offset: 0x24208, size: 0x8, addend: 0x0, symName: __ZNKSt3__114__split_bufferI8employeeRNS_9allocatorIS1_EEE8capacityB7v160006Ev, symObjAddr: 0xEF78, symBinAddr: 0x1000116B4, symSize: 0x40 }
  - { offsetInCU: 0x2422E, offset: 0x2422E, size: 0x8, addend: 0x0, symName: __ZNSt3__114__split_bufferI8employeeRNS_9allocatorIS1_EEE17__destruct_at_endB7v160006EPS1_, symObjAddr: 0xEFB8, symBinAddr: 0x1000116F4, symSize: 0x2C }
  - { offsetInCU: 0x24262, offset: 0x24262, size: 0x8, addend: 0x0, symName: __ZNSt3__114__split_bufferI8employeeRNS_9allocatorIS1_EEE17__destruct_at_endB7v160006EPS1_NS_17integral_constantIbLb0EEE, symObjAddr: 0xEFE4, symBinAddr: 0x100011720, symSize: 0x80 }
  - { offsetInCU: 0x242A3, offset: 0x242A3, size: 0x8, addend: 0x0, symName: __ZNKSt3__114__split_bufferI8employeeRNS_9allocatorIS1_EEE9__end_capB7v160006Ev, symObjAddr: 0xF064, symBinAddr: 0x1000117A0, symSize: 0x28 }
  - { offsetInCU: 0x242C9, offset: 0x242C9, size: 0x8, addend: 0x0, symName: __ZNKSt3__117__compressed_pairIP8employeeRNS_9allocatorIS1_EEE5firstB7v160006Ev, symObjAddr: 0xF08C, symBinAddr: 0x1000117C8, symSize: 0x24 }
  - { offsetInCU: 0x242EF, offset: 0x242EF, size: 0x8, addend: 0x0, symName: __ZNSt3__115basic_stringbufIcNS_11char_traitsIcEENS_9allocatorIcEEEC1B7v160006ERKNS_12basic_stringIcS2_S4_EEj, symObjAddr: 0xF0B0, symBinAddr: 0x1000117EC, symSize: 0x3C }
  - { offsetInCU: 0x24335, offset: 0x24335, size: 0x8, addend: 0x0, symName: __ZNSt3__115basic_stringbufIcNS_11char_traitsIcEENS_9allocatorIcEEEC2B7v160006ERKNS_12basic_stringIcS2_S4_EEj, symObjAddr: 0xF0EC, symBinAddr: 0x100011828, symSize: 0xB4 }
  - { offsetInCU: 0x2437B, offset: 0x2437B, size: 0x8, addend: 0x0, symName: __ZNKSt3__112basic_stringIcNS_11char_traitsIcEENS_9allocatorIcEEE13get_allocatorB7v160006Ev, symObjAddr: 0xF1A0, symBinAddr: 0x1000118DC, symSize: 0x24 }
  - { offsetInCU: 0x243A1, offset: 0x243A1, size: 0x8, addend: 0x0, symName: __ZNSt3__112basic_stringIcNS_11char_traitsIcEENS_9allocatorIcEEEC1B7v160006ERKS4_, symObjAddr: 0xF1C4, symBinAddr: 0x100011900, symSize: 0x34 }
  - { offsetInCU: 0x243DA, offset: 0x243DA, size: 0x8, addend: 0x0, symName: __ZNSt3__112basic_stringIcNS_11char_traitsIcEENS_9allocatorIcEEEC2B7v160006ERKS4_, symObjAddr: 0xF1F8, symBinAddr: 0x100011934, symSize: 0x50 }
  - { offsetInCU: 0x24413, offset: 0x24413, size: 0x8, addend: 0x0, symName: __ZNSt3__117__compressed_pairINS_12basic_stringIcNS_11char_traitsIcEENS_9allocatorIcEEE5__repES5_EC1B7v160006INS_18__default_init_tagERKS5_EEOT_OT0_, symObjAddr: 0xF248, symBinAddr: 0x100011984, symSize: 0x3C }
  - { offsetInCU: 0x2446B, offset: 0x2446B, size: 0x8, addend: 0x0, symName: __ZNSt3__117__compressed_pairINS_12basic_stringIcNS_11char_traitsIcEENS_9allocatorIcEEE5__repES5_EC2B7v160006INS_18__default_init_tagERKS5_EEOT_OT0_, symObjAddr: 0xF284, symBinAddr: 0x1000119C0, symSize: 0x40 }
  - { offsetInCU: 0x244C3, offset: 0x244C3, size: 0x8, addend: 0x0, symName: __ZNSt3__122__compressed_pair_elemINS_9allocatorIcEELi1ELb1EEC2B7v160006IRKS2_vEEOT_, symObjAddr: 0xF2C4, symBinAddr: 0x100011A00, symSize: 0x18 }
  - { offsetInCU: 0x2450A, offset: 0x2450A, size: 0x8, addend: 0x0, symName: __ZNSt3__18__iom_t9IcEC1B7v160006EP2tmPKc, symObjAddr: 0xF2DC, symBinAddr: 0x100011A18, symSize: 0x3C }
  - { offsetInCU: 0x24552, offset: 0x24552, size: 0x8, addend: 0x0, symName: __ZNSt3__18__iom_t9IcEC2B7v160006EP2tmPKc, symObjAddr: 0xF318, symBinAddr: 0x100011A54, symSize: 0x2C }
  - { offsetInCU: 0x2459A, offset: 0x2459A, size: 0x8, addend: 0x0, symName: __ZNSt3__119istreambuf_iteratorIcNS_11char_traitsIcEEEC1B7v160006ERNS_13basic_istreamIcS2_EE, symObjAddr: 0xF370, symBinAddr: 0x100011AAC, symSize: 0x34 }
  - { offsetInCU: 0x245D2, offset: 0x245D2, size: 0x8, addend: 0x0, symName: __ZNSt3__119istreambuf_iteratorIcNS_11char_traitsIcEEEC1B7v160006Ev, symObjAddr: 0xF3A4, symBinAddr: 0x100011AE0, symSize: 0x2C }
  - { offsetInCU: 0x245FC, offset: 0x245FC, size: 0x8, addend: 0x0, symName: __ZNSt3__119istreambuf_iteratorIcNS_11char_traitsIcEEEC2B7v160006ERNS_13basic_istreamIcS2_EE, symObjAddr: 0xF3D0, symBinAddr: 0x100011B0C, symSize: 0x54 }
  - { offsetInCU: 0x24634, offset: 0x24634, size: 0x8, addend: 0x0, symName: __ZNSt3__119istreambuf_iteratorIcNS_11char_traitsIcEEEC2B7v160006Ev, symObjAddr: 0xF424, symBinAddr: 0x100011B60, symSize: 0x18 }
  - { offsetInCU: 0x2465E, offset: 0x2465E, size: 0x8, addend: 0x0, symName: __ZNSt3__114basic_iostreamIcNS_11char_traitsIcEEEC2B7v160006EPNS_15basic_streambufIcS2_EE, symObjAddr: 0xF43C, symBinAddr: 0x100011B78, symSize: 0xAC }
  - { offsetInCU: 0x246A4, offset: 0x246A4, size: 0x8, addend: 0x0, symName: __ZNSt3__115basic_stringbufIcNS_11char_traitsIcEENS_9allocatorIcEEEC1B7v160006Ej, symObjAddr: 0xF4E8, symBinAddr: 0x100011C24, symSize: 0x34 }
  - { offsetInCU: 0x246DC, offset: 0x246DC, size: 0x8, addend: 0x0, symName: __ZNSt3__113basic_ostreamIcNS_11char_traitsIcEEEC2B7v160006Ev, symObjAddr: 0xF51C, symBinAddr: 0x100011C58, symSize: 0x34 }
  - { offsetInCU: 0x24713, offset: 0x24713, size: 0x8, addend: 0x0, symName: __ZNSt3__115basic_stringbufIcNS_11char_traitsIcEENS_9allocatorIcEEEC2B7v160006Ej, symObjAddr: 0xF550, symBinAddr: 0x100011C8C, symSize: 0x60 }
  - { offsetInCU: 0x24750, offset: 0x24750, size: 0x8, addend: 0x0, symName: __ZNSt3__19__iom_t10IcEC1B7v160006EPK2tmPKc, symObjAddr: 0xF5B0, symBinAddr: 0x100011CEC, symSize: 0x3C }
  - { offsetInCU: 0x24798, offset: 0x24798, size: 0x8, addend: 0x0, symName: __ZNSt3__19__iom_t10IcEC2B7v160006EPK2tmPKc, symObjAddr: 0xF5EC, symBinAddr: 0x100011D28, symSize: 0x2C }
  - { offsetInCU: 0x247E0, offset: 0x247E0, size: 0x8, addend: 0x0, symName: __ZNSt3__19allocatorIcEC1B7v160006Ev, symObjAddr: 0xF644, symBinAddr: 0x100011D80, symSize: 0x2C }
  - { offsetInCU: 0x2480A, offset: 0x2480A, size: 0x8, addend: 0x0, symName: __ZNSt3__16vectorI6recordNS_9allocatorIS1_EEEC2B7v160006Ev, symObjAddr: 0xF670, symBinAddr: 0x100011DAC, symSize: 0x58 }
  - { offsetInCU: 0x24834, offset: 0x24834, size: 0x8, addend: 0x0, symName: __ZNSt3__117__compressed_pairIP6recordNS_9allocatorIS1_EEEC1B7v160006IDnNS_18__default_init_tagEEEOT_OT0_, symObjAddr: 0xF6C8, symBinAddr: 0x100011E04, symSize: 0x3C }
  - { offsetInCU: 0x2488C, offset: 0x2488C, size: 0x8, addend: 0x0, symName: __ZNSt3__117__compressed_pairIP6recordNS_9allocatorIS1_EEEC2B7v160006IDnNS_18__default_init_tagEEEOT_OT0_, symObjAddr: 0xF714, symBinAddr: 0x100011E50, symSize: 0x40 }
  - { offsetInCU: 0x248E4, offset: 0x248E4, size: 0x8, addend: 0x0, symName: __ZNSt3__122__compressed_pair_elemIP6recordLi0ELb0EEC2B7v160006IDnvEEOT_, symObjAddr: 0xF754, symBinAddr: 0x100011E90, symSize: 0x1C }
  - { offsetInCU: 0x24926, offset: 0x24926, size: 0x8, addend: 0x0, symName: __ZNSt3__122__compressed_pair_elemINS_9allocatorI6recordEELi1ELb1EEC2B7v160006ENS_18__default_init_tagE, symObjAddr: 0xF770, symBinAddr: 0x100011EAC, symSize: 0x2C }
  - { offsetInCU: 0x2495B, offset: 0x2495B, size: 0x8, addend: 0x0, symName: __ZNSt3__19allocatorI6recordEC2B7v160006Ev, symObjAddr: 0xF79C, symBinAddr: 0x100011ED8, symSize: 0x2C }
  - { offsetInCU: 0x24985, offset: 0x24985, size: 0x8, addend: 0x0, symName: __ZNSt3__116__non_trivial_ifILb1ENS_9allocatorI6recordEEEC2B7v160006Ev, symObjAddr: 0xF7C8, symBinAddr: 0x100011F04, symSize: 0x14 }
  - { offsetInCU: 0x249AF, offset: 0x249AF, size: 0x8, addend: 0x0, symName: __ZNSt3__16vectorI6recordNS_9allocatorIS1_EEED2B7v160006Ev, symObjAddr: 0xF7DC, symBinAddr: 0x100011F18, symSize: 0x44 }
  - { offsetInCU: 0x249D9, offset: 0x249D9, size: 0x8, addend: 0x0, symName: __ZNSt3__16vectorI6recordNS_9allocatorIS1_EEE16__destroy_vectorC1ERS4_, symObjAddr: 0xF820, symBinAddr: 0x100011F5C, symSize: 0x34 }
  - { offsetInCU: 0x24A12, offset: 0x24A12, size: 0x8, addend: 0x0, symName: __ZNSt3__16vectorI6recordNS_9allocatorIS1_EEE16__destroy_vectorclB7v160006Ev, symObjAddr: 0xF854, symBinAddr: 0x100011F90, symSize: 0x9C }
  - { offsetInCU: 0x24A38, offset: 0x24A38, size: 0x8, addend: 0x0, symName: __ZNSt3__16vectorI6recordNS_9allocatorIS1_EEE16__destroy_vectorC2ERS4_, symObjAddr: 0xF8F0, symBinAddr: 0x10001202C, symSize: 0x20 }
  - { offsetInCU: 0x24A71, offset: 0x24A71, size: 0x8, addend: 0x0, symName: __ZNKSt3__16vectorI6recordNS_9allocatorIS1_EEE17__annotate_deleteB7v160006Ev, symObjAddr: 0xF910, symBinAddr: 0x10001204C, symSize: 0xD4 }
  - { offsetInCU: 0x24A97, offset: 0x24A97, size: 0x8, addend: 0x0, symName: __ZNSt3__16vectorI6recordNS_9allocatorIS1_EEE7__clearB7v160006Ev, symObjAddr: 0xF9F4, symBinAddr: 0x100012130, symSize: 0x28 }
  - { offsetInCU: 0x24ABD, offset: 0x24ABD, size: 0x8, addend: 0x0, symName: __ZNSt3__116allocator_traitsINS_9allocatorI6recordEEE10deallocateB7v160006ERS3_PS2_m, symObjAddr: 0xFA1C, symBinAddr: 0x100012158, symSize: 0x34 }
  - { offsetInCU: 0x24AFF, offset: 0x24AFF, size: 0x8, addend: 0x0, symName: __ZNSt3__16vectorI6recordNS_9allocatorIS1_EEE7__allocB7v160006Ev, symObjAddr: 0xFA50, symBinAddr: 0x10001218C, symSize: 0x28 }
  - { offsetInCU: 0x24B25, offset: 0x24B25, size: 0x8, addend: 0x0, symName: __ZNKSt3__16vectorI6recordNS_9allocatorIS1_EEE8capacityB7v160006Ev, symObjAddr: 0xFA78, symBinAddr: 0x1000121B4, symSize: 0x40 }
  - { offsetInCU: 0x24B4B, offset: 0x24B4B, size: 0x8, addend: 0x0, symName: __ZNKSt3__16vectorI6recordNS_9allocatorIS1_EEE31__annotate_contiguous_containerB7v160006EPKvS6_S6_S6_, symObjAddr: 0xFAB8, symBinAddr: 0x1000121F4, symSize: 0x20 }
  - { offsetInCU: 0x24BA1, offset: 0x24BA1, size: 0x8, addend: 0x0, symName: __ZNKSt3__16vectorI6recordNS_9allocatorIS1_EEE4dataB7v160006Ev, symObjAddr: 0xFAD8, symBinAddr: 0x100012214, symSize: 0x28 }
  - { offsetInCU: 0x24BC7, offset: 0x24BC7, size: 0x8, addend: 0x0, symName: __ZNSt3__16vectorI6recordNS_9allocatorIS1_EEE22__base_destruct_at_endB7v160006EPS1_, symObjAddr: 0xFB14, symBinAddr: 0x100012250, symSize: 0x8C }
  - { offsetInCU: 0x24C0B, offset: 0x24C0B, size: 0x8, addend: 0x0, symName: __ZNSt3__116allocator_traitsINS_9allocatorI6recordEEE7destroyB7v160006IS2_vEEvRS3_PT_, symObjAddr: 0xFBA0, symBinAddr: 0x1000122DC, symSize: 0x2C }
  - { offsetInCU: 0x24C48, offset: 0x24C48, size: 0x8, addend: 0x0, symName: __ZNSt3__19allocatorI6recordE7destroyB7v160006EPS1_, symObjAddr: 0xFBCC, symBinAddr: 0x100012308, symSize: 0x28 }
  - { offsetInCU: 0x24C7C, offset: 0x24C7C, size: 0x8, addend: 0x0, symName: __ZNSt3__19allocatorI6recordE10deallocateB7v160006EPS1_m, symObjAddr: 0xFBF4, symBinAddr: 0x100012330, symSize: 0x44 }
  - { offsetInCU: 0x24CBE, offset: 0x24CBE, size: 0x8, addend: 0x0, symName: __ZNSt3__117__compressed_pairIP6recordNS_9allocatorIS1_EEE6secondB7v160006Ev, symObjAddr: 0xFC38, symBinAddr: 0x100012374, symSize: 0x24 }
  - { offsetInCU: 0x24CE4, offset: 0x24CE4, size: 0x8, addend: 0x0, symName: __ZNSt3__122__compressed_pair_elemINS_9allocatorI6recordEELi1ELb1EE5__getB7v160006Ev, symObjAddr: 0xFC5C, symBinAddr: 0x100012398, symSize: 0x14 }
  - { offsetInCU: 0x24D0A, offset: 0x24D0A, size: 0x8, addend: 0x0, symName: __ZNKSt3__16vectorI6recordNS_9allocatorIS1_EEE9__end_capB7v160006Ev, symObjAddr: 0xFC70, symBinAddr: 0x1000123AC, symSize: 0x28 }
  - { offsetInCU: 0x24D30, offset: 0x24D30, size: 0x8, addend: 0x0, symName: __ZNKSt3__117__compressed_pairIP6recordNS_9allocatorIS1_EEE5firstB7v160006Ev, symObjAddr: 0xFC98, symBinAddr: 0x1000123D4, symSize: 0x24 }
  - { offsetInCU: 0x24D56, offset: 0x24D56, size: 0x8, addend: 0x0, symName: __ZNKSt3__122__compressed_pair_elemIP6recordLi0ELb0EE5__getB7v160006Ev, symObjAddr: 0xFCBC, symBinAddr: 0x1000123F8, symSize: 0x14 }
  - { offsetInCU: 0x24D7C, offset: 0x24D7C, size: 0x8, addend: 0x0, symName: __ZNSt3__16vectorI6recordNS_9allocatorIS1_EEE9__end_capB7v160006Ev, symObjAddr: 0xFCD0, symBinAddr: 0x10001240C, symSize: 0x28 }
  - { offsetInCU: 0x24DA2, offset: 0x24DA2, size: 0x8, addend: 0x0, symName: __ZNSt3__16vectorI6recordNS_9allocatorIS1_EEE22__construct_one_at_endB7v160006IJRKS1_EEEvDpOT_, symObjAddr: 0xFCF8, symBinAddr: 0x100012434, symSize: 0x90 }
  - { offsetInCU: 0x24DF1, offset: 0x24DF1, size: 0x8, addend: 0x0, symName: __ZNSt3__16vectorI6recordNS_9allocatorIS1_EEE21__push_back_slow_pathIRKS1_EEvOT_, symObjAddr: 0xFD88, symBinAddr: 0x1000124C4, symSize: 0xD8 }
  - { offsetInCU: 0x24E4F, offset: 0x24E4F, size: 0x8, addend: 0x0, symName: __ZNSt3__117__compressed_pairIP6recordNS_9allocatorIS1_EEE5firstB7v160006Ev, symObjAddr: 0xFE60, symBinAddr: 0x10001259C, symSize: 0x24 }
  - { offsetInCU: 0x24E75, offset: 0x24E75, size: 0x8, addend: 0x0, symName: __ZNSt3__122__compressed_pair_elemIP6recordLi0ELb0EE5__getB7v160006Ev, symObjAddr: 0xFE84, symBinAddr: 0x1000125C0, symSize: 0x14 }
  - { offsetInCU: 0x24EB4, offset: 0x24EB4, size: 0x8, addend: 0x0, symName: __ZNSt3__16vectorI6recordNS_9allocatorIS1_EEE21_ConstructTransactionC1B7v160006ERS4_m, symObjAddr: 0xFE98, symBinAddr: 0x1000125D4, symSize: 0x3C }
  - { offsetInCU: 0x24EFC, offset: 0x24EFC, size: 0x8, addend: 0x0, symName: __ZNSt3__116allocator_traitsINS_9allocatorI6recordEEE9constructB7v160006IS2_JRKS2_EvEEvRS3_PT_DpOT0_, symObjAddr: 0xFED4, symBinAddr: 0x100012610, symSize: 0x34 }
  - { offsetInCU: 0x24F53, offset: 0x24F53, size: 0x8, addend: 0x0, symName: __ZNSt3__16vectorI6recordNS_9allocatorIS1_EEE21_ConstructTransactionD1B7v160006Ev, symObjAddr: 0xFF08, symBinAddr: 0x100012644, symSize: 0x2C }
  - { offsetInCU: 0x24F7D, offset: 0x24F7D, size: 0x8, addend: 0x0, symName: __ZNSt3__16vectorI6recordNS_9allocatorIS1_EEE21_ConstructTransactionC2B7v160006ERS4_m, symObjAddr: 0xFF34, symBinAddr: 0x100012670, symSize: 0x4C }
  - { offsetInCU: 0x24FC5, offset: 0x24FC5, size: 0x8, addend: 0x0, symName: __ZNSt3__19allocatorI6recordE9constructB7v160006IS1_JRKS1_EEEvPT_DpOT0_, symObjAddr: 0xFF80, symBinAddr: 0x1000126BC, symSize: 0x30 }
  - { offsetInCU: 0x2501B, offset: 0x2501B, size: 0x8, addend: 0x0, symName: __ZN6recordC1ERKS_, symObjAddr: 0xFFB0, symBinAddr: 0x1000126EC, symSize: 0x34 }
  - { offsetInCU: 0x25050, offset: 0x25050, size: 0x8, addend: 0x0, symName: __ZN6recordC2ERKS_, symObjAddr: 0xFFE4, symBinAddr: 0x100012720, symSize: 0xA8 }
  - { offsetInCU: 0x25085, offset: 0x25085, size: 0x8, addend: 0x0, symName: __ZNSt3__16vectorI6recordNS_9allocatorIS1_EEE21_ConstructTransactionD2B7v160006Ev, symObjAddr: 0x1008C, symBinAddr: 0x1000127C8, symSize: 0x20 }
  - { offsetInCU: 0x250AF, offset: 0x250AF, size: 0x8, addend: 0x0, symName: __ZNKSt3__16vectorI6recordNS_9allocatorIS1_EEE11__recommendB7v160006Em, symObjAddr: 0x100AC, symBinAddr: 0x1000127E8, symSize: 0xB4 }
  - { offsetInCU: 0x25104, offset: 0x25104, size: 0x8, addend: 0x0, symName: __ZNSt3__114__split_bufferI6recordRNS_9allocatorIS1_EEEC1EmmS4_, symObjAddr: 0x10160, symBinAddr: 0x10001289C, symSize: 0x44 }
  - { offsetInCU: 0x2515A, offset: 0x2515A, size: 0x8, addend: 0x0, symName: __ZNSt3__114__split_bufferI6recordRNS_9allocatorIS1_EEED1Ev, symObjAddr: 0x102BC, symBinAddr: 0x1000129F8, symSize: 0x2C }
  - { offsetInCU: 0x25186, offset: 0x25186, size: 0x8, addend: 0x0, symName: __ZNKSt3__16vectorI6recordNS_9allocatorIS1_EEE8max_sizeEv, symObjAddr: 0x102E8, symBinAddr: 0x100012A24, symSize: 0x60 }
  - { offsetInCU: 0x251AE, offset: 0x251AE, size: 0x8, addend: 0x0, symName: __ZNKSt3__16vectorI6recordNS_9allocatorIS1_EEE20__throw_length_errorB7v160006Ev, symObjAddr: 0x10348, symBinAddr: 0x100012A84, symSize: 0x1C }
  - { offsetInCU: 0x251DE, offset: 0x251DE, size: 0x8, addend: 0x0, symName: __ZNSt3__116allocator_traitsINS_9allocatorI6recordEEE8max_sizeB7v160006IS3_vEEmRKS3_, symObjAddr: 0x10364, symBinAddr: 0x100012AA0, symSize: 0x24 }
  - { offsetInCU: 0x2520C, offset: 0x2520C, size: 0x8, addend: 0x0, symName: __ZNKSt3__16vectorI6recordNS_9allocatorIS1_EEE7__allocB7v160006Ev, symObjAddr: 0x10388, symBinAddr: 0x100012AC4, symSize: 0x28 }
  - { offsetInCU: 0x25232, offset: 0x25232, size: 0x8, addend: 0x0, symName: __ZNKSt3__19allocatorI6recordE8max_sizeB7v160006Ev, symObjAddr: 0x103B0, symBinAddr: 0x100012AEC, symSize: 0x18 }
  - { offsetInCU: 0x25258, offset: 0x25258, size: 0x8, addend: 0x0, symName: __ZNKSt3__117__compressed_pairIP6recordNS_9allocatorIS1_EEE6secondB7v160006Ev, symObjAddr: 0x103C8, symBinAddr: 0x100012B04, symSize: 0x24 }
  - { offsetInCU: 0x2527E, offset: 0x2527E, size: 0x8, addend: 0x0, symName: __ZNKSt3__122__compressed_pair_elemINS_9allocatorI6recordEELi1ELb1EE5__getB7v160006Ev, symObjAddr: 0x103EC, symBinAddr: 0x100012B28, symSize: 0x14 }
  - { offsetInCU: 0x252A4, offset: 0x252A4, size: 0x8, addend: 0x0, symName: __ZNSt3__114__split_bufferI6recordRNS_9allocatorIS1_EEEC2EmmS4_, symObjAddr: 0x10400, symBinAddr: 0x100012B3C, symSize: 0xE0 }
  - { offsetInCU: 0x25317, offset: 0x25317, size: 0x8, addend: 0x0, symName: __ZNSt3__117__compressed_pairIP6recordRNS_9allocatorIS1_EEEC1B7v160006IDnS5_EEOT_OT0_, symObjAddr: 0x104E0, symBinAddr: 0x100012C1C, symSize: 0x3C }
  - { offsetInCU: 0x2536F, offset: 0x2536F, size: 0x8, addend: 0x0, symName: __ZNSt3__114__split_bufferI6recordRNS_9allocatorIS1_EEE7__allocB7v160006Ev, symObjAddr: 0x1055C, symBinAddr: 0x100012C98, symSize: 0x28 }
  - { offsetInCU: 0x25395, offset: 0x25395, size: 0x8, addend: 0x0, symName: __ZNSt3__114__split_bufferI6recordRNS_9allocatorIS1_EEE9__end_capB7v160006Ev, symObjAddr: 0x10584, symBinAddr: 0x100012CC0, symSize: 0x28 }
  - { offsetInCU: 0x253BB, offset: 0x253BB, size: 0x8, addend: 0x0, symName: __ZNSt3__117__compressed_pairIP6recordRNS_9allocatorIS1_EEEC2B7v160006IDnS5_EEOT_OT0_, symObjAddr: 0x105AC, symBinAddr: 0x100012CE8, symSize: 0x48 }
  - { offsetInCU: 0x25413, offset: 0x25413, size: 0x8, addend: 0x0, symName: __ZNSt3__122__compressed_pair_elemIRNS_9allocatorI6recordEELi1ELb0EEC2B7v160006IS4_vEEOT_, symObjAddr: 0x105F4, symBinAddr: 0x100012D30, symSize: 0x20 }
  - { offsetInCU: 0x25455, offset: 0x25455, size: 0x8, addend: 0x0, symName: __ZNSt3__19allocatorI6recordE8allocateB7v160006Em, symObjAddr: 0x10614, symBinAddr: 0x100012D50, symSize: 0x5C }
  - { offsetInCU: 0x25489, offset: 0x25489, size: 0x8, addend: 0x0, symName: __ZNSt3__117__compressed_pairIP6recordRNS_9allocatorIS1_EEE6secondB7v160006Ev, symObjAddr: 0x10670, symBinAddr: 0x100012DAC, symSize: 0x28 }
  - { offsetInCU: 0x254AF, offset: 0x254AF, size: 0x8, addend: 0x0, symName: __ZNSt3__122__compressed_pair_elemIRNS_9allocatorI6recordEELi1ELb0EE5__getB7v160006Ev, symObjAddr: 0x10698, symBinAddr: 0x100012DD4, symSize: 0x18 }
  - { offsetInCU: 0x254D5, offset: 0x254D5, size: 0x8, addend: 0x0, symName: __ZNSt3__117__compressed_pairIP6recordRNS_9allocatorIS1_EEE5firstB7v160006Ev, symObjAddr: 0x106B0, symBinAddr: 0x100012DEC, symSize: 0x24 }
  - { offsetInCU: 0x254FB, offset: 0x254FB, size: 0x8, addend: 0x0, symName: __ZNSt3__116reverse_iteratorIP6recordEC1B7v160006ES2_, symObjAddr: 0x10800, symBinAddr: 0x100012F3C, symSize: 0x34 }
  - { offsetInCU: 0x25533, offset: 0x25533, size: 0x8, addend: 0x0, symName: __ZNKSt3__116reverse_iteratorIP6recordE4baseB7v160006Ev, symObjAddr: 0x10834, symBinAddr: 0x100012F70, symSize: 0x18 }
  - { offsetInCU: 0x25559, offset: 0x25559, size: 0x8, addend: 0x0, symName: __ZNKSt3__16vectorI6recordNS_9allocatorIS1_EEE14__annotate_newB7v160006Em, symObjAddr: 0x10888, symBinAddr: 0x100012FC4, symSize: 0xC8 }
  - { offsetInCU: 0x2558E, offset: 0x2558E, size: 0x8, addend: 0x0, symName: __ZNSt3__129_AllocatorDestroyRangeReverseINS_9allocatorI6recordEENS_16reverse_iteratorIPS2_EEEC1B7v160006ERS3_RS6_S9_, symObjAddr: 0x109AC, symBinAddr: 0x1000130E8, symSize: 0x44 }
  - { offsetInCU: 0x255E5, offset: 0x255E5, size: 0x8, addend: 0x0, symName: __ZNSt3__116allocator_traitsINS_9allocatorI6recordEEE9constructB7v160006IS2_JS2_EvEEvRS3_PT_DpOT0_, symObjAddr: 0x10A38, symBinAddr: 0x100013174, symSize: 0x34 }
  - { offsetInCU: 0x2563C, offset: 0x2563C, size: 0x8, addend: 0x0, symName: __ZNKSt3__116reverse_iteratorIP6recordEdeB7v160006Ev, symObjAddr: 0x10A90, symBinAddr: 0x1000131CC, symSize: 0x28 }
  - { offsetInCU: 0x25670, offset: 0x25670, size: 0x8, addend: 0x0, symName: __ZNSt3__116reverse_iteratorIP6recordEppB7v160006Ev, symObjAddr: 0x10AB8, symBinAddr: 0x1000131F4, symSize: 0x20 }
  - { offsetInCU: 0x25696, offset: 0x25696, size: 0x8, addend: 0x0, symName: __ZNSt3__128__exception_guard_exceptionsINS_29_AllocatorDestroyRangeReverseINS_9allocatorI6recordEENS_16reverse_iteratorIPS3_EEEEE10__completeB7v160006Ev, symObjAddr: 0x10AD8, symBinAddr: 0x100013214, symSize: 0x1C }
  - { offsetInCU: 0x256BC, offset: 0x256BC, size: 0x8, addend: 0x0, symName: __ZNSt3__128__exception_guard_exceptionsINS_29_AllocatorDestroyRangeReverseINS_9allocatorI6recordEENS_16reverse_iteratorIPS3_EEEEED1B7v160006Ev, symObjAddr: 0x10AF4, symBinAddr: 0x100013230, symSize: 0x2C }
  - { offsetInCU: 0x256E6, offset: 0x256E6, size: 0x8, addend: 0x0, symName: __ZNSt3__128__exception_guard_exceptionsINS_29_AllocatorDestroyRangeReverseINS_9allocatorI6recordEENS_16reverse_iteratorIPS3_EEEEEC1B7v160006ES8_, symObjAddr: 0x10B20, symBinAddr: 0x10001325C, symSize: 0x34 }
  - { offsetInCU: 0x2571F, offset: 0x2571F, size: 0x8, addend: 0x0, symName: __ZNSt3__128__exception_guard_exceptionsINS_29_AllocatorDestroyRangeReverseINS_9allocatorI6recordEENS_16reverse_iteratorIPS3_EEEEEC2B7v160006ES8_, symObjAddr: 0x10B54, symBinAddr: 0x100013290, symSize: 0x30 }
  - { offsetInCU: 0x25758, offset: 0x25758, size: 0x8, addend: 0x0, symName: __ZNSt3__129_AllocatorDestroyRangeReverseINS_9allocatorI6recordEENS_16reverse_iteratorIPS2_EEEC2B7v160006ERS3_RS6_S9_, symObjAddr: 0x10B84, symBinAddr: 0x1000132C0, symSize: 0x38 }
  - { offsetInCU: 0x257AF, offset: 0x257AF, size: 0x8, addend: 0x0, symName: __ZNSt3__19allocatorI6recordE9constructB7v160006IS1_JS1_EEEvPT_DpOT0_, symObjAddr: 0x10BBC, symBinAddr: 0x1000132F8, symSize: 0x30 }
  - { offsetInCU: 0x25805, offset: 0x25805, size: 0x8, addend: 0x0, symName: __ZN6recordC1EOS_, symObjAddr: 0x10BEC, symBinAddr: 0x100013328, symSize: 0x34 }
  - { offsetInCU: 0x2583A, offset: 0x2583A, size: 0x8, addend: 0x0, symName: __ZN6recordC2EOS_, symObjAddr: 0x10C20, symBinAddr: 0x10001335C, symSize: 0x7C }
  - { offsetInCU: 0x25874, offset: 0x25874, size: 0x8, addend: 0x0, symName: __ZNSt3__119__to_address_helperINS_16reverse_iteratorIP6recordEEvE6__callB7v160006ERKS4_, symObjAddr: 0x10C9C, symBinAddr: 0x1000133D8, symSize: 0x38 }
  - { offsetInCU: 0x25897, offset: 0x25897, size: 0x8, addend: 0x0, symName: __ZNKSt3__116reverse_iteratorIP6recordEptB7v160006Ev, symObjAddr: 0x10CD4, symBinAddr: 0x100013410, symSize: 0x24 }
  - { offsetInCU: 0x258BD, offset: 0x258BD, size: 0x8, addend: 0x0, symName: __ZNSt3__128__exception_guard_exceptionsINS_29_AllocatorDestroyRangeReverseINS_9allocatorI6recordEENS_16reverse_iteratorIPS3_EEEEED2B7v160006Ev, symObjAddr: 0x10CF8, symBinAddr: 0x100013434, symSize: 0x50 }
  - { offsetInCU: 0x258E7, offset: 0x258E7, size: 0x8, addend: 0x0, symName: __ZNKSt3__129_AllocatorDestroyRangeReverseINS_9allocatorI6recordEENS_16reverse_iteratorIPS2_EEEclB7v160006Ev, symObjAddr: 0x10D48, symBinAddr: 0x100013484, symSize: 0xB4 }
  - { offsetInCU: 0x2590E, offset: 0x2590E, size: 0x8, addend: 0x0, symName: __ZNSt3__116reverse_iteratorINS0_IP6recordEEEC1B7v160006ES3_, symObjAddr: 0x10E6C, symBinAddr: 0x1000135A8, symSize: 0x3C }
  - { offsetInCU: 0x25946, offset: 0x25946, size: 0x8, addend: 0x0, symName: __ZNSt3__116reverse_iteratorINS0_IP6recordEEEppB7v160006Ev, symObjAddr: 0x10F2C, symBinAddr: 0x100013668, symSize: 0x30 }
  - { offsetInCU: 0x2596C, offset: 0x2596C, size: 0x8, addend: 0x0, symName: __ZNKSt3__116reverse_iteratorINS0_IP6recordEEE4baseB7v160006Ev, symObjAddr: 0x10F5C, symBinAddr: 0x100013698, symSize: 0x24 }
  - { offsetInCU: 0x25997, offset: 0x25997, size: 0x8, addend: 0x0, symName: __ZNSt3__119__to_address_helperINS_16reverse_iteratorINS1_IP6recordEEEEvE6__callB7v160006ERKS5_, symObjAddr: 0x10F80, symBinAddr: 0x1000136BC, symSize: 0x38 }
  - { offsetInCU: 0x259BA, offset: 0x259BA, size: 0x8, addend: 0x0, symName: __ZNKSt3__116reverse_iteratorINS0_IP6recordEEEptB7v160006Ev, symObjAddr: 0x10FB8, symBinAddr: 0x1000136F4, symSize: 0x24 }
  - { offsetInCU: 0x259E0, offset: 0x259E0, size: 0x8, addend: 0x0, symName: __ZNKSt3__116reverse_iteratorINS0_IP6recordEEEdeB7v160006Ev, symObjAddr: 0x10FDC, symBinAddr: 0x100013718, symSize: 0x34 }
  - { offsetInCU: 0x25A14, offset: 0x25A14, size: 0x8, addend: 0x0, symName: __ZNSt3__116reverse_iteratorIP6recordEmmB7v160006Ev, symObjAddr: 0x11010, symBinAddr: 0x10001374C, symSize: 0x20 }
  - { offsetInCU: 0x25A3A, offset: 0x25A3A, size: 0x8, addend: 0x0, symName: __ZNSt3__116reverse_iteratorINS0_IP6recordEEEC2B7v160006ES3_, symObjAddr: 0x11030, symBinAddr: 0x10001376C, symSize: 0x2C }
  - { offsetInCU: 0x25A72, offset: 0x25A72, size: 0x8, addend: 0x0, symName: __ZNSt3__116reverse_iteratorIP6recordEC2B7v160006ES2_, symObjAddr: 0x1105C, symBinAddr: 0x100013798, symSize: 0x28 }
  - { offsetInCU: 0x25AAA, offset: 0x25AAA, size: 0x8, addend: 0x0, symName: __ZNSt3__114__split_bufferI6recordRNS_9allocatorIS1_EEED2Ev, symObjAddr: 0x11084, symBinAddr: 0x1000137C0, symSize: 0x8C }
  - { offsetInCU: 0x25AD6, offset: 0x25AD6, size: 0x8, addend: 0x0, symName: __ZNSt3__114__split_bufferI6recordRNS_9allocatorIS1_EEE5clearB7v160006Ev, symObjAddr: 0x11110, symBinAddr: 0x10001384C, symSize: 0x28 }
  - { offsetInCU: 0x25AFC, offset: 0x25AFC, size: 0x8, addend: 0x0, symName: __ZNKSt3__114__split_bufferI6recordRNS_9allocatorIS1_EEE8capacityB7v160006Ev, symObjAddr: 0x11138, symBinAddr: 0x100013874, symSize: 0x40 }
  - { offsetInCU: 0x25B22, offset: 0x25B22, size: 0x8, addend: 0x0, symName: __ZNSt3__114__split_bufferI6recordRNS_9allocatorIS1_EEE17__destruct_at_endB7v160006EPS1_, symObjAddr: 0x11178, symBinAddr: 0x1000138B4, symSize: 0x2C }
  - { offsetInCU: 0x25B56, offset: 0x25B56, size: 0x8, addend: 0x0, symName: __ZNSt3__114__split_bufferI6recordRNS_9allocatorIS1_EEE17__destruct_at_endB7v160006EPS1_NS_17integral_constantIbLb0EEE, symObjAddr: 0x111A4, symBinAddr: 0x1000138E0, symSize: 0x80 }
  - { offsetInCU: 0x25B97, offset: 0x25B97, size: 0x8, addend: 0x0, symName: __ZNKSt3__114__split_bufferI6recordRNS_9allocatorIS1_EEE9__end_capB7v160006Ev, symObjAddr: 0x11224, symBinAddr: 0x100013960, symSize: 0x28 }
  - { offsetInCU: 0x25BBD, offset: 0x25BBD, size: 0x8, addend: 0x0, symName: __ZNKSt3__117__compressed_pairIP6recordRNS_9allocatorIS1_EEE5firstB7v160006Ev, symObjAddr: 0x1124C, symBinAddr: 0x100013988, symSize: 0x24 }
  - { offsetInCU: 0x25BE3, offset: 0x25BE3, size: 0x8, addend: 0x0, symName: __ZNSt3__16vectorI6recordNS_9allocatorIS1_EEE11__make_iterB7v160006EPS1_, symObjAddr: 0x11270, symBinAddr: 0x1000139AC, symSize: 0x34 }
  - { offsetInCU: 0x25C18, offset: 0x25C18, size: 0x8, addend: 0x0, symName: __ZNSt3__111__wrap_iterIP6recordEC1B7v160006EPKvS2_, symObjAddr: 0x112A4, symBinAddr: 0x1000139E0, symSize: 0x3C }
  - { offsetInCU: 0x25C5E, offset: 0x25C5E, size: 0x8, addend: 0x0, symName: __ZNSt3__111__wrap_iterIP6recordEC2B7v160006EPKvS2_, symObjAddr: 0x112E0, symBinAddr: 0x100013A1C, symSize: 0x24 }
  - { offsetInCU: 0x25CA4, offset: 0x25CA4, size: 0x8, addend: 0x0, symName: __ZNSt3__115basic_streambufIcNS_11char_traitsIcEEE5sgetcB7v160006Ev, symObjAddr: 0x11304, symBinAddr: 0x100013A40, symSize: 0x70 }
  - { offsetInCU: 0x25CCA, offset: 0x25CCA, size: 0x8, addend: 0x0, symName: __ZNKSt3__15ctypeIcE2isB7v160006Ejc, symObjAddr: 0x11374, symBinAddr: 0x100013AB0, symSize: 0x7C }
  - { offsetInCU: 0x25D0D, offset: 0x25D0D, size: 0x8, addend: 0x0, symName: __Z7isasciii, symObjAddr: 0x113F0, symBinAddr: 0x100013B2C, symSize: 0x24 }
  - { offsetInCU: 0x25D3A, offset: 0x25D3A, size: 0x8, addend: 0x0, symName: __ZNSt3__111char_traitsIcE7compareEPKcS3_m, symObjAddr: 0x11414, symBinAddr: 0x100013B50, symSize: 0x6C }
  - { offsetInCU: 0x2B35, offset: 0x28C37, size: 0x8, addend: 0x0, symName: __ZNSt3__16chronoplB7v160006INS0_12system_clockENS0_8durationIxNS_5ratioILl1ELl1000000EEEEElNS4_ILl3600ELl1EEEEENS0_10time_pointIT_NS_11common_typeIJT0_NS3_IT1_T2_EEEE4typeEEERKNS8_IS9_SB_EERKSE_, symObjAddr: 0x1D84, symBinAddr: 0x100015378, symSize: 0x50 }
  - { offsetInCU: 0x2DB2, offset: 0x28EB4, size: 0x8, addend: 0x0, symName: __ZNSt3__16chronoplB7v160006IxNS_5ratioILl1ELl1000000EEElNS2_ILl3600ELl1EEEEENS_11common_typeIJNS0_8durationIT_T0_EENS6_IT1_T2_EEEE4typeERKS9_RKSC_, symObjAddr: 0x341C, symBinAddr: 0x1000166E4, symSize: 0x7C }
  - { offsetInCU: 0x2E72, offset: 0x28F74, size: 0x8, addend: 0x0, symName: __ZNSt3__16chrono13duration_castB7v160006INS0_8durationIxNS_5ratioILl1ELl1000000EEEEElNS3_ILl3600ELl1EEEEENS_9enable_ifIXsr13__is_durationIT_EE5valueES8_E4typeERKNS2_IT0_T1_EE, symObjAddr: 0x3594, symBinAddr: 0x10001685C, symSize: 0x30 }
  - { offsetInCU: 0x2EB9, offset: 0x28FBB, size: 0x8, addend: 0x0, symName: __ZNSt3__16chronogtB7v160006INS0_12system_clockENS0_8durationIxNS_5ratioILl1ELl1000000EEEEES6_EEbRKNS0_10time_pointIT_T0_EERKNS7_IS8_T1_EE, symObjAddr: 0xA0AC, symBinAddr: 0x100018ECC, symSize: 0x30 }
  - { offsetInCU: 0x47A9, offset: 0x2A8AB, size: 0x8, addend: 0x0, symName: __ZNSt3__17advanceB7v160006IP3carmmvEEvRT_T0_, symObjAddr: 0x5140, symBinAddr: 0x100016BBC, symSize: 0x50 }
  - { offsetInCU: 0x61FD, offset: 0x2C2FF, size: 0x8, addend: 0x0, symName: __ZNSt3__111__introsortINS_17_ClassicAlgPolicyER14compareRecordsP6recordEEvT1_S6_T0_NS_15iterator_traitsIS6_E15difference_typeE, symObjAddr: 0x8474, symBinAddr: 0x100017294, symSize: 0xD54 }
  - { offsetInCU: 0x6358, offset: 0x2C45A, size: 0x8, addend: 0x0, symName: __ZNSt3__118__insertion_sort_3B7v160006INS_17_ClassicAlgPolicyER14compareRecordsP6recordEEvT1_S6_T0_, symObjAddr: 0x9364, symBinAddr: 0x100018184, symSize: 0x350 }
  - { offsetInCU: 0x641D, offset: 0x2C51F, size: 0x8, addend: 0x0, symName: __ZNSt3__111__sift_downB7v160006INS_17_ClassicAlgPolicyER14compareRecordsP6recordEEvT1_OT0_NS_15iterator_traitsIS6_E15difference_typeES6_, symObjAddr: 0xAA04, symBinAddr: 0x1000194AC, symSize: 0x570 }
  - { offsetInCU: 0x64CC, offset: 0x2C5CE, size: 0x8, addend: 0x0, symName: __ZNSt3__117__floyd_sift_downB7v160006INS_17_ClassicAlgPolicyER14compareRecordsP6recordEET1_S6_OT0_NS_15iterator_traitsIS6_E15difference_typeE, symObjAddr: 0xB154, symBinAddr: 0x100019BFC, symSize: 0x24C }
  - { offsetInCU: 0x6564, offset: 0x2C666, size: 0x8, addend: 0x0, symName: __ZNSt3__127__insertion_sort_incompleteIR14compareRecordsP6recordEEbT0_S5_T_, symObjAddr: 0x9B34, symBinAddr: 0x100018954, symSize: 0x560 }
  - { offsetInCU: 0x7F39, offset: 0x2E03B, size: 0x8, addend: 0x0, symName: __ZNSt3__14sortB7v160006INS_11__wrap_iterIP6recordEE14compareRecordsEEvT_S6_T0_, symObjAddr: 0xD6C, symBinAddr: 0x100014558, symSize: 0x40 }
  - { offsetInCU: 0x7F93, offset: 0x2E095, size: 0x8, addend: 0x0, symName: __ZNSt3__1rsB7v160006IcNS_11char_traitsIcEEEERNS_13basic_istreamIT_T0_EES7_RS4_, symObjAddr: 0x1B24, symBinAddr: 0x100015174, symSize: 0x190 }
  - { offsetInCU: 0x8015, offset: 0x2E117, size: 0x8, addend: 0x0, symName: __ZNSt3__18distanceB7v160006IP3carEENS_15iterator_traitsIT_E15difference_typeES4_S4_, symObjAddr: 0x5114, symBinAddr: 0x100016B90, symSize: 0x2C }
  - { offsetInCU: 0x8058, offset: 0x2E15A, size: 0x8, addend: 0x0, symName: __ZNSt3__14copyB7v160006IP3carS2_EET0_T_S4_S3_, symObjAddr: 0x5190, symBinAddr: 0x100016C0C, symSize: 0x40 }
  - { offsetInCU: 0x80B2, offset: 0x2E1B4, size: 0x8, addend: 0x0, symName: __ZNSt3__110__distanceB7v160006IP3carEENS_15iterator_traitsIT_E15difference_typeES4_S4_NS_26random_access_iterator_tagE, symObjAddr: 0x5380, symBinAddr: 0x100016CAC, symSize: 0x28 }
  - { offsetInCU: 0x8100, offset: 0x2E202, size: 0x8, addend: 0x0, symName: __ZNSt3__121__convert_to_integralB7v160006Em, symObjAddr: 0x53A8, symBinAddr: 0x100016CD4, symSize: 0x14 }
  - { offsetInCU: 0x812C, offset: 0x2E22E, size: 0x8, addend: 0x0, symName: __ZNSt3__19__advanceB7v160006IP3carEEvRT_NS_15iterator_traitsIS3_E15difference_typeENS_26random_access_iterator_tagE, symObjAddr: 0x53BC, symBinAddr: 0x100016CE8, symSize: 0x30 }
  - { offsetInCU: 0x8176, offset: 0x2E278, size: 0x8, addend: 0x0, symName: __ZNSt3__16__copyB7v160006INS_17_ClassicAlgPolicyEP3carS3_S3_EENS_4pairIT0_T2_EES5_T1_S6_, symObjAddr: 0x53EC, symBinAddr: 0x100016D18, symSize: 0x44 }
  - { offsetInCU: 0x81E2, offset: 0x2E2E4, size: 0x8, addend: 0x0, symName: __ZNSt3__123__dispatch_copy_or_moveB7v160006INS_17_ClassicAlgPolicyENS_11__copy_loopIS1_EENS_14__copy_trivialEP3carS6_S6_EENS_4pairIT2_T4_EES8_T3_S9_, symObjAddr: 0x5430, symBinAddr: 0x100016D5C, symSize: 0x44 }
  - { offsetInCU: 0x8260, offset: 0x2E362, size: 0x8, addend: 0x0, symName: __ZNSt3__121__unwrap_and_dispatchB7v160006INS_10__overloadINS_11__copy_loopINS_17_ClassicAlgPolicyEEENS_14__copy_trivialEEEP3carS8_S8_Li0EEENS_4pairIT0_T2_EESA_T1_SB_, symObjAddr: 0x5474, symBinAddr: 0x100016DA0, symSize: 0xB4 }
  - { offsetInCU: 0x82EE, offset: 0x2E3F0, size: 0x8, addend: 0x0, symName: __ZNSt3__114__unwrap_rangeB7v160006IP3carS2_EENS_4pairIT0_S4_EET_S6_, symObjAddr: 0x5528, symBinAddr: 0x100016E54, symSize: 0x60 }
  - { offsetInCU: 0x8469, offset: 0x2E56B, size: 0x8, addend: 0x0, symName: __ZNSt3__113__unwrap_iterB7v160006IP3carNS_18__unwrap_iter_implIS2_Lb1EEELi0EEEDTclsrT0_8__unwrapclsr3stdE7declvalIT_EEEES6_, symObjAddr: 0x5610, symBinAddr: 0x100016F3C, symSize: 0x24 }
  - { offsetInCU: 0x84AD, offset: 0x2E5AF, size: 0x8, addend: 0x0, symName: __ZNSt3__19make_pairB7v160006IP3carS2_EENS_4pairINS_18__unwrap_ref_decayIT_E4typeENS4_IT0_E4typeEEEOS5_OS8_, symObjAddr: 0x5634, symBinAddr: 0x100016F60, symSize: 0x38 }
  - { offsetInCU: 0x84FC, offset: 0x2E5FE, size: 0x8, addend: 0x0, symName: __ZNSt3__114__rewrap_rangeB7v160006IP3carS2_EET_S3_T0_, symObjAddr: 0x566C, symBinAddr: 0x100016F98, symSize: 0x2C }
  - { offsetInCU: 0x8548, offset: 0x2E64A, size: 0x8, addend: 0x0, symName: __ZNSt3__113__rewrap_iterB7v160006IP3carS2_NS_18__unwrap_iter_implIS2_Lb1EEEEET_S5_T0_, symObjAddr: 0x5698, symBinAddr: 0x100016FC4, symSize: 0x3C }
  - { offsetInCU: 0x85F0, offset: 0x2E6F2, size: 0x8, addend: 0x0, symName: __ZNSt3__111__sort_implB7v160006INS_17_ClassicAlgPolicyENS_11__wrap_iterIP6recordEE14compareRecordsEEvT0_S7_RT1_, symObjAddr: 0x82E0, symBinAddr: 0x100017100, symSize: 0x84 }
  - { offsetInCU: 0x8697, offset: 0x2E799, size: 0x8, addend: 0x0, symName: __ZNSt3__123__debug_randomize_rangeB7v160006INS_17_ClassicAlgPolicyENS_11__wrap_iterIP6recordEES5_EEvT0_T1_, symObjAddr: 0x8364, symBinAddr: 0x100017184, symSize: 0x14 }
  - { offsetInCU: 0x86E8, offset: 0x2E7EA, size: 0x8, addend: 0x0, symName: __ZNSt3__16__sortIR14compareRecordsP6recordEEvT0_S5_T_, symObjAddr: 0x8378, symBinAddr: 0x100017198, symSize: 0x68 }
  - { offsetInCU: 0x8778, offset: 0x2E87A, size: 0x8, addend: 0x0, symName: __ZNSt3__113__unwrap_iterB7v160006INS_11__wrap_iterIP6recordEENS_18__unwrap_iter_implIS4_Lb1EEELi0EEEDTclsrT0_8__unwrapclsr3stdE7declvalIT_EEEES8_, symObjAddr: 0x83E0, symBinAddr: 0x100017200, symSize: 0x2C }
  - { offsetInCU: 0x87BC, offset: 0x2E8BE, size: 0x8, addend: 0x0, symName: __ZNSt3__17__log2iB7v160006IlEET_S1_, symObjAddr: 0x840C, symBinAddr: 0x10001722C, symSize: 0x54 }
  - { offsetInCU: 0x8826, offset: 0x2E928, size: 0x8, addend: 0x0, symName: __ZNSt3__112__libcpp_clzB7v160006Em, symObjAddr: 0x91E0, symBinAddr: 0x100018000, symSize: 0x1C }
  - { offsetInCU: 0x8916, offset: 0x2EA18, size: 0x8, addend: 0x0, symName: __ZNSt3__124__sort3_maybe_branchlessB7v160006INS_17_ClassicAlgPolicyER14compareRecordsP6recordEENS_9enable_ifIXntsr21__use_branchless_sortIT0_T1_EE5valueEvE4typeES8_S8_S8_S7_, symObjAddr: 0x9298, symBinAddr: 0x1000180B8, symSize: 0x3C }
  - { offsetInCU: 0x8987, offset: 0x2EA89, size: 0x8, addend: 0x0, symName: __ZNSt3__124__sort4_maybe_branchlessB7v160006INS_17_ClassicAlgPolicyER14compareRecordsP6recordEENS_9enable_ifIXntsr21__use_branchless_sortIT0_T1_EE5valueEvE4typeES8_S8_S8_S8_S7_, symObjAddr: 0x92D4, symBinAddr: 0x1000180F4, symSize: 0x44 }
  - { offsetInCU: 0x8A0C, offset: 0x2EB0E, size: 0x8, addend: 0x0, symName: __ZNSt3__124__sort5_maybe_branchlessB7v160006INS_17_ClassicAlgPolicyER14compareRecordsP6recordEENS_9enable_ifIXntsr21__use_branchless_sortIT0_T1_EE5valueEvE4typeES8_S8_S8_S8_S8_S7_, symObjAddr: 0x9318, symBinAddr: 0x100018138, symSize: 0x4C }
  - { offsetInCU: 0x8AA0, offset: 0x2EBA2, size: 0x8, addend: 0x0, symName: __ZNSt3__114__partial_sortB7v160006INS_17_ClassicAlgPolicyER14compareRecordsP6recordS5_EET1_S6_S6_T2_RT0_, symObjAddr: 0x96B4, symBinAddr: 0x1000184D4, symSize: 0x94 }
  - { offsetInCU: 0x8B28, offset: 0x2EC2A, size: 0x8, addend: 0x0, symName: __ZNSt3__119__sort5_wrap_policyB7v160006INS_17_ClassicAlgPolicyER14compareRecordsP6recordEEjT1_S6_S6_S6_S6_T0_, symObjAddr: 0x9748, symBinAddr: 0x100018568, symSize: 0x54 }
  - { offsetInCU: 0x8BCE, offset: 0x2ECD0, size: 0x8, addend: 0x0, symName: __ZNSt3__17__sort3B7v160006INS_17_ClassicAlgPolicyER14compareRecordsP6recordEEjT1_S6_S6_T0_, symObjAddr: 0x979C, symBinAddr: 0x1000185BC, symSize: 0x398 }
  - { offsetInCU: 0x8C4D, offset: 0x2ED4F, size: 0x8, addend: 0x0, symName: __ZNSt3__19iter_swapB7v160006IP6recordS2_EEvT_T0_, symObjAddr: 0xA0DC, symBinAddr: 0x100018EFC, symSize: 0x2C }
  - { offsetInCU: 0x8C96, offset: 0x2ED98, size: 0x8, addend: 0x0, symName: __ZNSt3__14swapB7v160006I6recordEENS_9enable_ifIXaasr21is_move_constructibleIT_EE5valuesr18is_move_assignableIS3_EE5valueEvE4typeERS3_S6_, symObjAddr: 0xA108, symBinAddr: 0x100018F28, symSize: 0x50 }
  - { offsetInCU: 0x8CE7, offset: 0x2EDE9, size: 0x8, addend: 0x0, symName: __ZNSt3__17__sort4B7v160006INS_17_ClassicAlgPolicyER14compareRecordsP6recordEEjT1_S6_S6_S6_T0_, symObjAddr: 0xA4D0, symBinAddr: 0x100018F78, symSize: 0x250 }
  - { offsetInCU: 0x8D98, offset: 0x2EE9A, size: 0x8, addend: 0x0, symName: __ZNSt3__123__debug_randomize_rangeB7v160006INS_17_ClassicAlgPolicyEP6recordS3_EEvT0_T1_, symObjAddr: 0xA764, symBinAddr: 0x10001920C, symSize: 0x14 }
  - { offsetInCU: 0x8DE9, offset: 0x2EEEB, size: 0x8, addend: 0x0, symName: __ZNSt3__119__partial_sort_implB7v160006INS_17_ClassicAlgPolicyER14compareRecordsP6recordS5_EET1_S6_S6_T2_OT0_, symObjAddr: 0xA778, symBinAddr: 0x100019220, symSize: 0x1CC }
  - { offsetInCU: 0x8E80, offset: 0x2EF82, size: 0x8, addend: 0x0, symName: __ZNSt3__111__make_heapB7v160006INS_17_ClassicAlgPolicyER14compareRecordsP6recordEEvT1_S6_OT0_, symObjAddr: 0xA944, symBinAddr: 0x1000193EC, symSize: 0xC0 }
  - { offsetInCU: 0x8F23, offset: 0x2F025, size: 0x8, addend: 0x0, symName: __ZNSt3__111__sort_heapB7v160006INS_17_ClassicAlgPolicyER14compareRecordsP6recordEEvT1_S6_OT0_, symObjAddr: 0xAF74, symBinAddr: 0x100019A1C, symSize: 0x90 }
  - { offsetInCU: 0x8FB8, offset: 0x2F0BA, size: 0x8, addend: 0x0, symName: __ZNSt3__110__pop_heapB7v160006INS_17_ClassicAlgPolicyE14compareRecordsP6recordEEvT1_S5_RT0_NS_15iterator_traitsIS5_E15difference_typeE, symObjAddr: 0xB004, symBinAddr: 0x100019AAC, symSize: 0x150 }
  - { offsetInCU: 0x9061, offset: 0x2F163, size: 0x8, addend: 0x0, symName: __ZNSt3__19__sift_upB7v160006INS_17_ClassicAlgPolicyER14compareRecordsP6recordEEvT1_S6_OT0_NS_15iterator_traitsIS6_E15difference_typeE, symObjAddr: 0xB3A0, symBinAddr: 0x100019E48, symSize: 0x25C }
  - { offsetInCU: 0x9103, offset: 0x2F205, size: 0x8, addend: 0x0, symName: __ZNSt3__17__sort5IR14compareRecordsP6recordEEjT0_S5_S5_S5_S5_T_, symObjAddr: 0xB5FC, symBinAddr: 0x10001A0A4, symSize: 0x30C }
  - { offsetInCU: 0x9203, offset: 0x2F305, size: 0x8, addend: 0x0, symName: __ZNSt3__112__to_addressB7v160006INS_11__wrap_iterIP6recordEEvEENS_5decayIDTclsr19__to_address_helperIT_EE6__callclsr3stdE7declvalIRKS6_EEEEE4typeES8_, symObjAddr: 0xB930, symBinAddr: 0x10001A3D8, symSize: 0x24 }
  - { offsetInCU: 0x986C, offset: 0x2F96E, size: 0x8, addend: 0x0, symName: __ZNSt3__1miB7v160006IPK3carS3_EEDTmicldtfp_4baseEcldtfp0_4baseEERKNS_11__wrap_iterIT_EERKNS5_IT0_EE, symObjAddr: 0xD1C0, symBinAddr: 0x10001A458, symSize: 0x48 }
  - { offsetInCU: 0x98B8, offset: 0x2F9BA, size: 0x8, addend: 0x0, symName: __ZNSt3__14moveB7v160006IP3carS2_EET0_T_S4_S3_, symObjAddr: 0xD234, symBinAddr: 0x10001A4CC, symSize: 0x40 }
  - { offsetInCU: 0x9912, offset: 0x2FA14, size: 0x8, addend: 0x0, symName: __ZNSt3__16__moveB7v160006INS_17_ClassicAlgPolicyEP3carS3_S3_EENS_4pairIT0_T2_EES5_T1_S6_, symObjAddr: 0xD350, symBinAddr: 0x10001A5E8, symSize: 0x44 }
  - { offsetInCU: 0x997E, offset: 0x2FA80, size: 0x8, addend: 0x0, symName: __ZNSt3__123__dispatch_copy_or_moveB7v160006INS_17_ClassicAlgPolicyENS_11__move_loopIS1_EENS_14__move_trivialEP3carS6_S6_EENS_4pairIT2_T4_EES8_T3_S9_, symObjAddr: 0xD394, symBinAddr: 0x10001A62C, symSize: 0x44 }
  - { offsetInCU: 0x99FC, offset: 0x2FAFE, size: 0x8, addend: 0x0, symName: __ZNSt3__121__unwrap_and_dispatchB7v160006INS_10__overloadINS_11__move_loopINS_17_ClassicAlgPolicyEEENS_14__move_trivialEEEP3carS8_S8_Li0EEENS_4pairIT0_T2_EESA_T1_SB_, symObjAddr: 0xD3D8, symBinAddr: 0x10001A670, symSize: 0xB4 }
  - { offsetInCU: 0x9E16, offset: 0x2FF18, size: 0x8, addend: 0x0, symName: __ZNKSt3__16chrono15__duration_castINS0_8durationIlNS_5ratioILl3600ELl1EEEEENS2_IxNS3_ILl1ELl1000000EEEEENS3_ILl3600000000ELl1EEELb0ELb1EEclB7v160006ERKS5_, symObjAddr: 0x35C4, symBinAddr: 0x10001688C, symSize: 0x4C }
  - { offsetInCU: 0xC713, offset: 0x32815, size: 0x8, addend: 0x0, symName: __ZN8customerC2ENSt3__112basic_stringIcNS0_11char_traitsIcEENS0_9allocatorIcEEEEiS6_iii, symObjAddr: 0x0, symBinAddr: 0x100013BF0, symSize: 0xF0 }
  - { offsetInCU: 0xC795, offset: 0x32897, size: 0x8, addend: 0x0, symName: __ZN8customerC1ENSt3__112basic_stringIcNS0_11char_traitsIcEENS0_9allocatorIcEEEEiS6_iii, symObjAddr: 0x11C, symBinAddr: 0x100013CE0, symSize: 0x5C }
  - { offsetInCU: 0xC817, offset: 0x32919, size: 0x8, addend: 0x0, symName: __ZN8customer13getRentedCarsEv, symObjAddr: 0x178, symBinAddr: 0x100013D3C, symSize: 0x3C }
  - { offsetInCU: 0xC83F, offset: 0x32941, size: 0x8, addend: 0x0, symName: __ZN8customer13setRentedCarsERNSt3__16vectorI3carNS0_9allocatorIS2_EEEE, symObjAddr: 0x1E8, symBinAddr: 0x100013D78, symSize: 0x30 }
  - { offsetInCU: 0xC875, offset: 0x32977, size: 0x8, addend: 0x0, symName: __ZNSt3__16vectorI3carNS_9allocatorIS1_EEEaSB7v160006ERKS4_, symObjAddr: 0x218, symBinAddr: 0x100013DA8, symSize: 0x68 }
  - { offsetInCU: 0xC8AC, offset: 0x329AE, size: 0x8, addend: 0x0, symName: __ZN8customer16setCustomerScoreEi, symObjAddr: 0x280, symBinAddr: 0x100013E10, symSize: 0x20 }
  - { offsetInCU: 0xC8E2, offset: 0x329E4, size: 0x8, addend: 0x0, symName: __ZN8customer16getCustomerScoreEv, symObjAddr: 0x2A0, symBinAddr: 0x100013E30, symSize: 0x18 }
  - { offsetInCU: 0xC90A, offset: 0x32A0C, size: 0x8, addend: 0x0, symName: __ZN8customer6setDueEi, symObjAddr: 0x2B8, symBinAddr: 0x100013E48, symSize: 0x20 }
  - { offsetInCU: 0xC940, offset: 0x32A42, size: 0x8, addend: 0x0, symName: __ZN8customer6getDueEv, symObjAddr: 0x2D8, symBinAddr: 0x100013E68, symSize: 0x18 }
  - { offsetInCU: 0xC968, offset: 0x32A6A, size: 0x8, addend: 0x0, symName: __ZN8customer7getFineEv, symObjAddr: 0x2F0, symBinAddr: 0x100013E80, symSize: 0x18 }
  - { offsetInCU: 0xC990, offset: 0x32A92, size: 0x8, addend: 0x0, symName: __ZN8customer7setFineEi, symObjAddr: 0x308, symBinAddr: 0x100013E98, symSize: 0x20 }
  - { offsetInCU: 0xC9C6, offset: 0x32AC8, size: 0x8, addend: 0x0, symName: __ZN8customer12currentFinesEv, symObjAddr: 0x328, symBinAddr: 0x100013EB8, symSize: 0x164 }
  - { offsetInCU: 0xCA63, offset: 0x32B65, size: 0x8, addend: 0x0, symName: __ZN8customer11viewRecordsEi, symObjAddr: 0x5D8, symBinAddr: 0x10001401C, symSize: 0x53C }
  - { offsetInCU: 0xCB28, offset: 0x32C2A, size: 0x8, addend: 0x0, symName: __ZN8customer9clearDuesEi, symObjAddr: 0xE50, symBinAddr: 0x100014598, symSize: 0x138 }
  - { offsetInCU: 0xCBB6, offset: 0x32CB8, size: 0x8, addend: 0x0, symName: __ZN8customer9clearFineEi, symObjAddr: 0x1080, symBinAddr: 0x1000146D0, symSize: 0x138 }
  - { offsetInCU: 0xCC44, offset: 0x32D46, size: 0x8, addend: 0x0, symName: __ZN8customer12rent_requestEv, symObjAddr: 0x11B8, symBinAddr: 0x100014808, symSize: 0x96C }
  - { offsetInCU: 0xCD4A, offset: 0x32E4C, size: 0x8, addend: 0x0, symName: __ZNSt3__16vectorI3carNS_9allocatorIS1_EEEixB7v160006Em, symObjAddr: 0x1D10, symBinAddr: 0x100015304, symSize: 0x2C }
  - { offsetInCU: 0xCD81, offset: 0x32E83, size: 0x8, addend: 0x0, symName: __ZN3caraSERKS_, symObjAddr: 0x1D3C, symBinAddr: 0x100015330, symSize: 0x48 }
  - { offsetInCU: 0xCDBC, offset: 0x32EBE, size: 0x8, addend: 0x0, symName: __ZNSt3__16chrono8durationIlNS_5ratioILl3600ELl1EEEEC1B7v160006IiEERKT_PNS_9enable_ifIXaasr14is_convertibleIS8_lEE5valueooL_ZNS_17integral_constantIbLb0EE5valueEEntsr23treat_as_floating_pointIS6_EE5valueEvE4typeE, symObjAddr: 0x1DD4, symBinAddr: 0x1000153C8, symSize: 0x3C }
  - { offsetInCU: 0xCE09, offset: 0x32F0B, size: 0x8, addend: 0x0, symName: __ZNSt3__16vectorI8customerNS_9allocatorIS1_EEEixB7v160006Em, symObjAddr: 0x1E38, symBinAddr: 0x100015404, symSize: 0x2C }
  - { offsetInCU: 0xCE40, offset: 0x32F42, size: 0x8, addend: 0x0, symName: __ZN8customer14return_requestEv, symObjAddr: 0x1F28, symBinAddr: 0x100015430, symSize: 0x7A0 }
  - { offsetInCU: 0xD05C, offset: 0x3315E, size: 0x8, addend: 0x0, symName: __ZNSt3__16vectorI3carNS_9allocatorIS1_EEE5eraseB7v160006ENS_11__wrap_iterIPKS1_EE, symObjAddr: 0x26C8, symBinAddr: 0x100015BD0, symSize: 0xAC }
  - { offsetInCU: 0xD0B1, offset: 0x331B3, size: 0x8, addend: 0x0, symName: __ZNKSt3__111__wrap_iterIP3carEplB7v160006El, symObjAddr: 0x2774, symBinAddr: 0x100015C7C, symSize: 0x3C }
  - { offsetInCU: 0xD0F8, offset: 0x331FA, size: 0x8, addend: 0x0, symName: __ZNSt3__111__wrap_iterIPK3carEC1B7v160006IPS1_EERKNS0_IT_EEPNS_9enable_ifIXsr14is_convertibleIS7_S3_EE5valueEvE4typeE, symObjAddr: 0x27B0, symBinAddr: 0x100015CB8, symSize: 0x3C }
  - { offsetInCU: 0xD143, offset: 0x33245, size: 0x8, addend: 0x0, symName: __Z16customer_processR8customer, symObjAddr: 0x27EC, symBinAddr: 0x100015CF4, symSize: 0x848 }
  - { offsetInCU: 0xD239, offset: 0x3333B, size: 0x8, addend: 0x0, symName: __Z18customer_operationR8customer, symObjAddr: 0x30BC, symBinAddr: 0x10001655C, symSize: 0x188 }
  - { offsetInCU: 0xD281, offset: 0x33383, size: 0x8, addend: 0x0, symName: __ZNSt3__16chrono10time_pointINS0_12system_clockENS0_8durationIxNS_5ratioILl1ELl1000000EEEEEEC1B7v160006ERKS6_, symObjAddr: 0x3498, symBinAddr: 0x100016760, symSize: 0x34 }
  - { offsetInCU: 0xD2B9, offset: 0x333BB, size: 0x8, addend: 0x0, symName: __ZNSt3__16chrono8durationIxNS_5ratioILl1ELl1000000EEEEC1B7v160006IlNS2_ILl3600ELl1EEEEERKNS1_IT_T0_EEPNS_9enable_ifIXaasr13__no_overflowIS8_S3_EE5valueooL_ZNS_17integral_constantIbLb0EE5valueEEaaeqsr13__no_overflowIS8_S3_E4typeE3denLi1Entsr23treat_as_floating_pointIS7_EE5valueEvE4typeE, symObjAddr: 0x34CC, symBinAddr: 0x100016794, symSize: 0x3C }
  - { offsetInCU: 0xD31A, offset: 0x3341C, size: 0x8, addend: 0x0, symName: __ZNSt3__16chrono8durationIxNS_5ratioILl1ELl1000000EEEEC1B7v160006IxEERKT_PNS_9enable_ifIXaasr14is_convertibleIS8_xEE5valueooL_ZNS_17integral_constantIbLb0EE5valueEEntsr23treat_as_floating_pointIS6_EE5valueEvE4typeE, symObjAddr: 0x3508, symBinAddr: 0x1000167D0, symSize: 0x3C }
  - { offsetInCU: 0xD367, offset: 0x33469, size: 0x8, addend: 0x0, symName: __ZNSt3__16chrono8durationIxNS_5ratioILl1ELl1000000EEEEC2B7v160006IlNS2_ILl3600ELl1EEEEERKNS1_IT_T0_EEPNS_9enable_ifIXaasr13__no_overflowIS8_S3_EE5valueooL_ZNS_17integral_constantIbLb0EE5valueEEaaeqsr13__no_overflowIS8_S3_E4typeE3denLi1Entsr23treat_as_floating_pointIS7_EE5valueEvE4typeE, symObjAddr: 0x3544, symBinAddr: 0x10001680C, symSize: 0x50 }
  - { offsetInCU: 0xD3BE, offset: 0x334C0, size: 0x8, addend: 0x0, symName: __ZNKSt3__16chrono8durationIlNS_5ratioILl3600ELl1EEEE5countB7v160006Ev, symObjAddr: 0x3610, symBinAddr: 0x1000168D8, symSize: 0x18 }
  - { offsetInCU: 0xD3E4, offset: 0x334E6, size: 0x8, addend: 0x0, symName: __ZNSt3__16chrono8durationIxNS_5ratioILl1ELl1000000EEEEC2B7v160006IxEERKT_PNS_9enable_ifIXaasr14is_convertibleIS8_xEE5valueooL_ZNS_17integral_constantIbLb0EE5valueEEntsr23treat_as_floating_pointIS6_EE5valueEvE4typeE, symObjAddr: 0x3628, symBinAddr: 0x1000168F0, symSize: 0x28 }
  - { offsetInCU: 0xD431, offset: 0x33533, size: 0x8, addend: 0x0, symName: __ZNSt3__16chrono10time_pointINS0_12system_clockENS0_8durationIxNS_5ratioILl1ELl1000000EEEEEEC2B7v160006ERKS6_, symObjAddr: 0x3650, symBinAddr: 0x100016918, symSize: 0x24 }
  - { offsetInCU: 0xD469, offset: 0x3356B, size: 0x8, addend: 0x0, symName: __ZNSt3__16chrono8durationIlNS_5ratioILl3600ELl1EEEEC2B7v160006IiEERKT_PNS_9enable_ifIXaasr14is_convertibleIS8_lEE5valueooL_ZNS_17integral_constantIbLb0EE5valueEEntsr23treat_as_floating_pointIS6_EE5valueEvE4typeE, symObjAddr: 0x3674, symBinAddr: 0x10001693C, symSize: 0x28 }
  - { offsetInCU: 0xD4B6, offset: 0x335B8, size: 0x8, addend: 0x0, symName: __ZNSt3__111__wrap_iterIP3carEpLB7v160006El, symObjAddr: 0x3704, symBinAddr: 0x100016964, symSize: 0x30 }
  - { offsetInCU: 0xD4EA, offset: 0x335EC, size: 0x8, addend: 0x0, symName: __ZNSt3__111__wrap_iterIPK3carEC2B7v160006IPS1_EERKNS0_IT_EEPNS_9enable_ifIXsr14is_convertibleIS7_S3_EE5valueEvE4typeE, symObjAddr: 0x3734, symBinAddr: 0x100016994, symSize: 0x40 }
  - { offsetInCU: 0xD559, offset: 0x3365B, size: 0x8, addend: 0x0, symName: __ZNSt3__16vectorI3carNS_9allocatorIS1_EEE19__copy_assign_allocB7v160006ERKS4_, symObjAddr: 0x4F58, symBinAddr: 0x1000169D4, symSize: 0x2C }
  - { offsetInCU: 0xD58E, offset: 0x33690, size: 0x8, addend: 0x0, symName: __ZNSt3__16vectorI3carNS_9allocatorIS1_EEE6assignIPS1_Li0EEEvT_S7_, symObjAddr: 0x4F84, symBinAddr: 0x100016A00, symSize: 0x17C }
  - { offsetInCU: 0xD62D, offset: 0x3372F, size: 0x8, addend: 0x0, symName: __ZNSt3__16vectorI3carNS_9allocatorIS1_EEE19__copy_assign_allocB7v160006ERKS4_NS_17integral_constantIbLb0EEE, symObjAddr: 0x5100, symBinAddr: 0x100016B7C, symSize: 0x14 }
  - { offsetInCU: 0xD66B, offset: 0x3376D, size: 0x8, addend: 0x0, symName: __ZNSt3__16vectorI3carNS_9allocatorIS1_EEE17__destruct_at_endB7v160006EPS1_, symObjAddr: 0x51D0, symBinAddr: 0x100016C4C, symSize: 0x60 }
  - { offsetInCU: 0xD6D3, offset: 0x337D5, size: 0x8, addend: 0x0, symName: __ZNKSt3__111__copy_loopINS_17_ClassicAlgPolicyEEclB7v160006IP3carS5_S5_EENS_4pairIT_T1_EES7_T0_S8_, symObjAddr: 0x5588, symBinAddr: 0x100016EB4, symSize: 0x88 }
  - { offsetInCU: 0xD73E, offset: 0x33840, size: 0x8, addend: 0x0, symName: __ZNSt3__118__unwrap_iter_implIP3carLb1EE8__unwrapB7v160006ES2_, symObjAddr: 0x56D4, symBinAddr: 0x100017000, symSize: 0x24 }
  - { offsetInCU: 0xD767, offset: 0x33869, size: 0x8, addend: 0x0, symName: __ZNSt3__14pairIP3carS2_EC1B7v160006IS2_S2_LPv0EEEOT_OT0_, symObjAddr: 0x56F8, symBinAddr: 0x100017024, symSize: 0x3C }
  - { offsetInCU: 0xD7C5, offset: 0x338C7, size: 0x8, addend: 0x0, symName: __ZNSt3__14pairIP3carS2_EC2B7v160006IS2_S2_LPv0EEEOT_OT0_, symObjAddr: 0x5734, symBinAddr: 0x100017060, symSize: 0x34 }
  - { offsetInCU: 0xD823, offset: 0x33925, size: 0x8, addend: 0x0, symName: __ZNSt3__118__unwrap_iter_implIP3carLb1EE8__rewrapB7v160006ES2_S2_, symObjAddr: 0x5768, symBinAddr: 0x100017094, symSize: 0x58 }
  - { offsetInCU: 0xD854, offset: 0x33956, size: 0x8, addend: 0x0, symName: __ZNSt3__16vectorI3carNS_9allocatorIS1_EEE27__invalidate_iterators_pastB7v160006EPS1_, symObjAddr: 0x57C0, symBinAddr: 0x1000170EC, symSize: 0x14 }
  - { offsetInCU: 0xD8E7, offset: 0x339E9, size: 0x8, addend: 0x0, symName: __ZNSt3__116_UnwrapAlgPolicyIR14compareRecordsE10__get_compB7v160006ES2_, symObjAddr: 0x8460, symBinAddr: 0x100017280, symSize: 0x14 }
  - { offsetInCU: 0xD90A, offset: 0x33A0C, size: 0x8, addend: 0x0, symName: __ZN14compareRecordsclE6recordS0_, symObjAddr: 0x91FC, symBinAddr: 0x10001801C, symSize: 0x68 }
  - { offsetInCU: 0xD94E, offset: 0x33A50, size: 0x8, addend: 0x0, symName: __ZNSt3__18_IterOpsINS_17_ClassicAlgPolicyEE9iter_swapB7v160006IRP6recordS6_EEvOT_OT0_, symObjAddr: 0x9264, symBinAddr: 0x100018084, symSize: 0x34 }
  - { offsetInCU: 0xD991, offset: 0x33A93, size: 0x8, addend: 0x0, symName: __ZNSt3__18_IterOpsINS_17_ClassicAlgPolicyEE11__iter_moveB7v160006IRP6recordEENS_9enable_ifIXsr12is_referenceIDTdeclsr3stdE7declvalIRT_EEEEE5valueEDTclsr3stdE4movedeclsr3stdE7declvalIS9_EEEEE4typeEOS8_, symObjAddr: 0xA720, symBinAddr: 0x1000191C8, symSize: 0x28 }
  - { offsetInCU: 0xD9BD, offset: 0x33ABF, size: 0x8, addend: 0x0, symName: __ZNSt3__18_IterOpsINS_17_ClassicAlgPolicyEE25__validate_iter_referenceB7v160006IRP6recordEEvv, symObjAddr: 0xA748, symBinAddr: 0x1000191F0, symSize: 0x4 }
  - { offsetInCU: 0xD9DB, offset: 0x33ADD, size: 0x8, addend: 0x0, symName: __ZNSt3__18_IterOpsINS_17_ClassicAlgPolicyEE4nextB7v160006IP6recordEET_S6_S6_, symObjAddr: 0xA74C, symBinAddr: 0x1000191F4, symSize: 0x18 }
  - { offsetInCU: 0xDA12, offset: 0x33B14, size: 0x8, addend: 0x0, symName: __ZNSt3__118__unwrap_iter_implINS_11__wrap_iterIP6recordEELb1EE8__unwrapB7v160006ES4_, symObjAddr: 0xB908, symBinAddr: 0x10001A3B0, symSize: 0x28 }
  - { offsetInCU: 0xDA3F, offset: 0x33B41, size: 0x8, addend: 0x0, symName: __ZNSt3__119__to_address_helperINS_11__wrap_iterIP6recordEEvE6__callB7v160006ERKS4_, symObjAddr: 0xB954, symBinAddr: 0x10001A3FC, symSize: 0x30 }
  - { offsetInCU: 0xDA62, offset: 0x33B64, size: 0x8, addend: 0x0, symName: __ZNSt3__114pointer_traitsINS_11__wrap_iterIP6recordEEE10to_addressB7v160006ES4_, symObjAddr: 0xB984, symBinAddr: 0x10001A42C, symSize: 0x2C }
  - { offsetInCU: 0xDB20, offset: 0x33C22, size: 0x8, addend: 0x0, symName: __ZNKSt3__16vectorI3carNS_9allocatorIS1_EEE6cbeginB7v160006Ev, symObjAddr: 0xD208, symBinAddr: 0x10001A4A0, symSize: 0x2C }
  - { offsetInCU: 0xDB46, offset: 0x33C48, size: 0x8, addend: 0x0, symName: __ZNKSt3__111__wrap_iterIPK3carE4baseB7v160006Ev, symObjAddr: 0xD274, symBinAddr: 0x10001A50C, symSize: 0x18 }
  - { offsetInCU: 0xDB6C, offset: 0x33C6E, size: 0x8, addend: 0x0, symName: __ZNKSt3__16vectorI3carNS_9allocatorIS1_EEE5beginB7v160006Ev, symObjAddr: 0xD28C, symBinAddr: 0x10001A524, symSize: 0x30 }
  - { offsetInCU: 0xDB94, offset: 0x33C96, size: 0x8, addend: 0x0, symName: __ZNKSt3__16vectorI3carNS_9allocatorIS1_EEE11__make_iterB7v160006EPKS1_, symObjAddr: 0xD2BC, symBinAddr: 0x10001A554, symSize: 0x34 }
  - { offsetInCU: 0xDBC9, offset: 0x33CCB, size: 0x8, addend: 0x0, symName: __ZNSt3__111__wrap_iterIPK3carEC1B7v160006EPKvS3_, symObjAddr: 0xD2F0, symBinAddr: 0x10001A588, symSize: 0x3C }
  - { offsetInCU: 0xDC0F, offset: 0x33D11, size: 0x8, addend: 0x0, symName: __ZNSt3__111__wrap_iterIPK3carEC2B7v160006EPKvS3_, symObjAddr: 0xD32C, symBinAddr: 0x10001A5C4, symSize: 0x24 }
  - { offsetInCU: 0xDC5F, offset: 0x33D61, size: 0x8, addend: 0x0, symName: __ZNKSt3__111__move_loopINS_17_ClassicAlgPolicyEEclB7v160006IP3carS5_S5_EENS_4pairIT_T1_EES7_T0_S8_, symObjAddr: 0xD48C, symBinAddr: 0x10001A724, symSize: 0x90 }
  - { offsetInCU: 0xDCCA, offset: 0x33DCC, size: 0x8, addend: 0x0, symName: __ZNSt3__18_IterOpsINS_17_ClassicAlgPolicyEE11__iter_moveB7v160006IRP3carEENS_9enable_ifIXsr12is_referenceIDTdeclsr3stdE7declvalIRT_EEEEE5valueEDTclsr3stdE4movedeclsr3stdE7declvalIS9_EEEEE4typeEOS8_, symObjAddr: 0xD51C, symBinAddr: 0x10001A7B4, symSize: 0x28 }
  - { offsetInCU: 0xDCF6, offset: 0x33DF8, size: 0x8, addend: 0x0, symName: __ZNSt3__18_IterOpsINS_17_ClassicAlgPolicyEE25__validate_iter_referenceB7v160006IRP3carEEvv, symObjAddr: 0xD58C, symBinAddr: 0x10001A7DC, symSize: 0x4 }
  - { offsetInCU: 0x8B67, offset: 0x3C9E0, size: 0x8, addend: 0x0, symName: __ZN8employeeC2ENSt3__112basic_stringIcNS0_11char_traitsIcEENS0_9allocatorIcEEEEiS6_iii, symObjAddr: 0x0, symBinAddr: 0x10001A7E0, symSize: 0xF0 }
  - { offsetInCU: 0x8BE9, offset: 0x3CA62, size: 0x8, addend: 0x0, symName: __ZN8employeeC1ENSt3__112basic_stringIcNS0_11char_traitsIcEENS0_9allocatorIcEEEEiS6_iii, symObjAddr: 0x11C, symBinAddr: 0x10001A8D0, symSize: 0x5C }
  - { offsetInCU: 0x8C6B, offset: 0x3CAE4, size: 0x8, addend: 0x0, symName: __ZN8employee13getRentedCarsEv, symObjAddr: 0x178, symBinAddr: 0x10001A92C, symSize: 0x3C }
  - { offsetInCU: 0x8C93, offset: 0x3CB0C, size: 0x8, addend: 0x0, symName: __ZN8employee13setRentedCarsERNSt3__16vectorI3carNS0_9allocatorIS2_EEEE, symObjAddr: 0x1E8, symBinAddr: 0x10001A968, symSize: 0x30 }
  - { offsetInCU: 0x8CC9, offset: 0x3CB42, size: 0x8, addend: 0x0, symName: __ZN8employee16setEmployeeScoreEi, symObjAddr: 0x280, symBinAddr: 0x10001A998, symSize: 0x20 }
  - { offsetInCU: 0x8CFF, offset: 0x3CB78, size: 0x8, addend: 0x0, symName: __ZN8employee16getEmployeeScoreEv, symObjAddr: 0x2A0, symBinAddr: 0x10001A9B8, symSize: 0x18 }
  - { offsetInCU: 0x8D27, offset: 0x3CBA0, size: 0x8, addend: 0x0, symName: __ZN8employee6setDueEi, symObjAddr: 0x2B8, symBinAddr: 0x10001A9D0, symSize: 0x20 }
  - { offsetInCU: 0x8D5D, offset: 0x3CBD6, size: 0x8, addend: 0x0, symName: __ZN8employee6getDueEv, symObjAddr: 0x2D8, symBinAddr: 0x10001A9F0, symSize: 0x18 }
  - { offsetInCU: 0x8D85, offset: 0x3CBFE, size: 0x8, addend: 0x0, symName: __ZN8employee7getFineEv, symObjAddr: 0x2F0, symBinAddr: 0x10001AA08, symSize: 0x18 }
  - { offsetInCU: 0x8DAD, offset: 0x3CC26, size: 0x8, addend: 0x0, symName: __ZN8employee7setFineEi, symObjAddr: 0x308, symBinAddr: 0x10001AA20, symSize: 0x20 }
  - { offsetInCU: 0x8DE3, offset: 0x3CC5C, size: 0x8, addend: 0x0, symName: __ZN8employee12currentFinesEv, symObjAddr: 0x328, symBinAddr: 0x10001AA40, symSize: 0x164 }
  - { offsetInCU: 0x8E80, offset: 0x3CCF9, size: 0x8, addend: 0x0, symName: __ZN8employee11viewRecordsEi, symObjAddr: 0x5D8, symBinAddr: 0x10001ABA4, symSize: 0x53C }
  - { offsetInCU: 0x8F45, offset: 0x3CDBE, size: 0x8, addend: 0x0, symName: __ZN8employee9clearDuesEi, symObjAddr: 0xE50, symBinAddr: 0x10001B0E0, symSize: 0x138 }
  - { offsetInCU: 0x8FD3, offset: 0x3CE4C, size: 0x8, addend: 0x0, symName: __ZN8employee9clearFineEi, symObjAddr: 0x1080, symBinAddr: 0x10001B218, symSize: 0x138 }
  - { offsetInCU: 0x9061, offset: 0x3CEDA, size: 0x8, addend: 0x0, symName: __ZN8employee12rent_requestEv, symObjAddr: 0x11B8, symBinAddr: 0x10001B350, symSize: 0x994 }
  - { offsetInCU: 0x9167, offset: 0x3CFE0, size: 0x8, addend: 0x0, symName: __ZNSt3__16vectorI8employeeNS_9allocatorIS1_EEEixB7v160006Em, symObjAddr: 0x1E60, symBinAddr: 0x10001BCE4, symSize: 0x2C }
  - { offsetInCU: 0x919E, offset: 0x3D017, size: 0x8, addend: 0x0, symName: __ZN8employee14return_requestEv, symObjAddr: 0x1F50, symBinAddr: 0x10001BD10, symSize: 0x79C }
  - { offsetInCU: 0x93B9, offset: 0x3D232, size: 0x8, addend: 0x0, symName: __Z16employee_processR8employee, symObjAddr: 0x2810, symBinAddr: 0x10001C4AC, symSize: 0x848 }
  - { offsetInCU: 0x94AF, offset: 0x3D328, size: 0x8, addend: 0x0, symName: __Z18employee_operationR8employee, symObjAddr: 0x30E0, symBinAddr: 0x10001CD14, symSize: 0x188 }
  - { offsetInCU: 0x10B2E, offset: 0x4DEF4, size: 0x8, addend: 0x0, symName: __Z13createManagerv, symObjAddr: 0x0, symBinAddr: 0x10001CECC, symSize: 0x2F8 }
  - { offsetInCU: 0x10B8F, offset: 0x4DF55, size: 0x8, addend: 0x0, symName: __ZN7managerC1ENSt3__112basic_stringIcNS0_11char_traitsIcEENS0_9allocatorIcEEEEiS6_, symObjAddr: 0x32C, symBinAddr: 0x10001D1C4, symSize: 0x44 }
  - { offsetInCU: 0x10CD1, offset: 0x4E097, size: 0x8, addend: 0x0, symName: __ZN7managerC2ENSt3__112basic_stringIcNS0_11char_traitsIcEENS0_9allocatorIcEEEEiS6_, symObjAddr: 0x62C, symBinAddr: 0x10001D208, symSize: 0xC0 }
  - { offsetInCU: 0x10D29, offset: 0x4E0EF, size: 0x8, addend: 0x0, symName: __ZN7manager6addCarER3car, symObjAddr: 0x6EC, symBinAddr: 0x10001D2C8, symSize: 0xF0 }
  - { offsetInCU: 0x10E11, offset: 0x4E1D7, size: 0x8, addend: 0x0, symName: __ZN11carDatabaseD1Ev, symObjAddr: 0x7DC, symBinAddr: 0x10001D3B8, symSize: 0x2C }
  - { offsetInCU: 0x10E3D, offset: 0x4E203, size: 0x8, addend: 0x0, symName: __ZN7manager9deleteCarEi, symObjAddr: 0x808, symBinAddr: 0x10001D3E4, symSize: 0x194 }
  - { offsetInCU: 0x10E91, offset: 0x4E257, size: 0x8, addend: 0x0, symName: __ZN7manager9updateCarEi, symObjAddr: 0x9C8, symBinAddr: 0x10001D578, symSize: 0x1A4 }
  - { offsetInCU: 0x10EE5, offset: 0x4E2AB, size: 0x8, addend: 0x0, symName: __ZN7manager11addCustomerEv, symObjAddr: 0xB6C, symBinAddr: 0x10001D71C, symSize: 0x210 }
  - { offsetInCU: 0x11014, offset: 0x4E3DA, size: 0x8, addend: 0x0, symName: __ZN16customerDatabaseD1Ev, symObjAddr: 0x10CC, symBinAddr: 0x10001D92C, symSize: 0x2C }
  - { offsetInCU: 0x11040, offset: 0x4E406, size: 0x8, addend: 0x0, symName: __ZN7manager14deleteCustomerEi, symObjAddr: 0x10F8, symBinAddr: 0x10001D958, symSize: 0x1E4 }
  - { offsetInCU: 0x11094, offset: 0x4E45A, size: 0x8, addend: 0x0, symName: __ZN7manager14updateCustomerEi, symObjAddr: 0x1308, symBinAddr: 0x10001DB3C, symSize: 0x1E4 }
  - { offsetInCU: 0x110E8, offset: 0x4E4AE, size: 0x8, addend: 0x0, symName: __ZN7manager11addEmployeeEv, symObjAddr: 0x14EC, symBinAddr: 0x10001DD20, symSize: 0x210 }
  - { offsetInCU: 0x11217, offset: 0x4E5DD, size: 0x8, addend: 0x0, symName: __ZN16employeeDatabaseD1Ev, symObjAddr: 0x16FC, symBinAddr: 0x10001DF30, symSize: 0x2C }
  - { offsetInCU: 0x11243, offset: 0x4E609, size: 0x8, addend: 0x0, symName: __ZN7manager14deleteEmployeeEi, symObjAddr: 0x1728, symBinAddr: 0x10001DF5C, symSize: 0x1E4 }
  - { offsetInCU: 0x11297, offset: 0x4E65D, size: 0x8, addend: 0x0, symName: __ZN7manager14updateEmployeeEi, symObjAddr: 0x1938, symBinAddr: 0x10001E140, symSize: 0x1E4 }
  - { offsetInCU: 0x112EB, offset: 0x4E6B1, size: 0x8, addend: 0x0, symName: __ZN7manager13getAllRecordsEv, symObjAddr: 0x1B1C, symBinAddr: 0x10001E324, symSize: 0xA84 }
  - { offsetInCU: 0x113F4, offset: 0x4E7BA, size: 0x8, addend: 0x0, symName: __ZN7manager13modifyRecordsEv, symObjAddr: 0x2790, symBinAddr: 0x10001EDA8, symSize: 0xA0C }
  - { offsetInCU: 0x115A7, offset: 0x4E96D, size: 0x8, addend: 0x0, symName: __Z15manager_processR7manager, symObjAddr: 0x31E8, symBinAddr: 0x10001F7D4, symSize: 0x3064 }
  - { offsetInCU: 0x11A31, offset: 0x4EDF7, size: 0x8, addend: 0x0, symName: __Z17manager_operationR7manager, symObjAddr: 0x6664, symBinAddr: 0x100022880, symSize: 0x1B4 }
  - { offsetInCU: 0x11A79, offset: 0x4EE3F, size: 0x8, addend: 0x0, symName: __ZN11carDatabaseD2Ev, symObjAddr: 0x6908, symBinAddr: 0x100022A34, symSize: 0x38 }
  - { offsetInCU: 0x11AA5, offset: 0x4EE6B, size: 0x8, addend: 0x0, symName: __ZN16customerDatabaseD2Ev, symObjAddr: 0x696C, symBinAddr: 0x100022A6C, symSize: 0x38 }
  - { offsetInCU: 0x11AD1, offset: 0x4EE97, size: 0x8, addend: 0x0, symName: __ZN16employeeDatabaseD2Ev, symObjAddr: 0x69DC, symBinAddr: 0x100022AA4, symSize: 0x38 }
  - { offsetInCU: 0x26, offset: 0x4EF1F, size: 0x8, addend: 0x0, symName: __ZN6recordC2EiNSt3__112basic_stringIcNS0_11char_traitsIcEENS0_9allocatorIcEEEEiS6_iNS0_6chrono10time_pointINS7_12system_clockENS7_8durationIxNS0_5ratioILl1ELl1000000EEEEEEESE_SE_, symObjAddr: 0x0, symBinAddr: 0x100022ADC, symSize: 0xD0 }
  - { offsetInCU: 0x4BD0, offset: 0x53AC9, size: 0x8, addend: 0x0, symName: __ZN6recordC2EiNSt3__112basic_stringIcNS0_11char_traitsIcEENS0_9allocatorIcEEEEiS6_iNS0_6chrono10time_pointINS7_12system_clockENS7_8durationIxNS0_5ratioILl1ELl1000000EEEEEEESE_SE_, symObjAddr: 0x0, symBinAddr: 0x100022ADC, symSize: 0xD0 }
  - { offsetInCU: 0x4C6E, offset: 0x53B67, size: 0x8, addend: 0x0, symName: __ZN6recordC1EiNSt3__112basic_stringIcNS0_11char_traitsIcEENS0_9allocatorIcEEEEiS6_iNS0_6chrono10time_pointINS7_12system_clockENS7_8durationIxNS0_5ratioILl1ELl1000000EEEEEEESE_SE_, symObjAddr: 0xD0, symBinAddr: 0x100022BAC, symSize: 0x78 }
  - { offsetInCU: 0x4D0C, offset: 0x53C05, size: 0x8, addend: 0x0, symName: __ZN6record8setCarIdEi, symObjAddr: 0x148, symBinAddr: 0x100022C24, symSize: 0x20 }
  - { offsetInCU: 0x4D42, offset: 0x53C3B, size: 0x8, addend: 0x0, symName: __ZN6record9setUserIdEi, symObjAddr: 0x168, symBinAddr: 0x100022C44, symSize: 0x20 }
  - { offsetInCU: 0x4D78, offset: 0x53C71, size: 0x8, addend: 0x0, symName: __ZN6record11setCarModelENSt3__112basic_stringIcNS0_11char_traitsIcEENS0_9allocatorIcEEEE, symObjAddr: 0x188, symBinAddr: 0x100022C64, symSize: 0x30 }
  - { offsetInCU: 0x4DAF, offset: 0x53CA8, size: 0x8, addend: 0x0, symName: __ZN6record11setUserNameENSt3__112basic_stringIcNS0_11char_traitsIcEENS0_9allocatorIcEEEE, symObjAddr: 0x1B8, symBinAddr: 0x100022C94, symSize: 0x30 }
  - { offsetInCU: 0x4DE6, offset: 0x53CDF, size: 0x8, addend: 0x0, symName: __ZN6record15setReturnStatusEi, symObjAddr: 0x1E8, symBinAddr: 0x100022CC4, symSize: 0x20 }
  - { offsetInCU: 0x4E1C, offset: 0x53D15, size: 0x8, addend: 0x0, symName: __ZN6record12setIssueDateENSt3__16chrono10time_pointINS1_12system_clockENS1_8durationIxNS0_5ratioILl1ELl1000000EEEEEEE, symObjAddr: 0x208, symBinAddr: 0x100022CE4, symSize: 0x20 }
  - { offsetInCU: 0x4E52, offset: 0x53D4B, size: 0x8, addend: 0x0, symName: __ZN6record10setDueDateENSt3__16chrono10time_pointINS1_12system_clockENS1_8durationIxNS0_5ratioILl1ELl1000000EEEEEEE, symObjAddr: 0x228, symBinAddr: 0x100022D04, symSize: 0x20 }
  - { offsetInCU: 0x4E88, offset: 0x53D81, size: 0x8, addend: 0x0, symName: __ZN6record13setReturnDateENSt3__16chrono10time_pointINS1_12system_clockENS1_8durationIxNS0_5ratioILl1ELl1000000EEEEEEE, symObjAddr: 0x248, symBinAddr: 0x100022D24, symSize: 0x20 }
  - { offsetInCU: 0x4EBE, offset: 0x53DB7, size: 0x8, addend: 0x0, symName: __ZN6record8getCarIdEv, symObjAddr: 0x268, symBinAddr: 0x100022D44, symSize: 0x18 }
  - { offsetInCU: 0x4EE6, offset: 0x53DDF, size: 0x8, addend: 0x0, symName: __ZN6record9getUserIdEv, symObjAddr: 0x280, symBinAddr: 0x100022D5C, symSize: 0x18 }
  - { offsetInCU: 0x4F0E, offset: 0x53E07, size: 0x8, addend: 0x0, symName: __ZN6record11getCarModelEv, symObjAddr: 0x298, symBinAddr: 0x100022D74, symSize: 0x3C }
  - { offsetInCU: 0x4F36, offset: 0x53E2F, size: 0x8, addend: 0x0, symName: __ZN6record11getUserNameEv, symObjAddr: 0x2D4, symBinAddr: 0x100022DB0, symSize: 0x3C }
  - { offsetInCU: 0x4F5E, offset: 0x53E57, size: 0x8, addend: 0x0, symName: __ZN6record15getReturnStatusEv, symObjAddr: 0x310, symBinAddr: 0x100022DEC, symSize: 0x18 }
  - { offsetInCU: 0x4F86, offset: 0x53E7F, size: 0x8, addend: 0x0, symName: __ZN6record12getIssueDateEv, symObjAddr: 0x328, symBinAddr: 0x100022E04, symSize: 0x20 }
  - { offsetInCU: 0x4FAE, offset: 0x53EA7, size: 0x8, addend: 0x0, symName: __ZN6record10getDueDateEv, symObjAddr: 0x348, symBinAddr: 0x100022E24, symSize: 0x20 }
  - { offsetInCU: 0x4FD6, offset: 0x53ECF, size: 0x8, addend: 0x0, symName: __ZN6record13getReturnDateEv, symObjAddr: 0x368, symBinAddr: 0x100022E44, symSize: 0x20 }
  - { offsetInCU: 0x26, offset: 0x53F22, size: 0x8, addend: 0x0, symName: __ZN3carC2ENSt3__112basic_stringIcNS0_11char_traitsIcEENS0_9allocatorIcEEEEibNS0_6chrono10time_pointINS7_12system_clockENS7_8durationIxNS0_5ratioILl1ELl1000000EEEEEEEii, symObjAddr: 0x0, symBinAddr: 0x100022E64, symSize: 0x7C }
  - { offsetInCU: 0x49AF, offset: 0x588AB, size: 0x8, addend: 0x0, symName: __ZN3carC2ENSt3__112basic_stringIcNS0_11char_traitsIcEENS0_9allocatorIcEEEEibNS0_6chrono10time_pointINS7_12system_clockENS7_8durationIxNS0_5ratioILl1ELl1000000EEEEEEEii, symObjAddr: 0x0, symBinAddr: 0x100022E64, symSize: 0x7C }
  - { offsetInCU: 0x4A30, offset: 0x5892C, size: 0x8, addend: 0x0, symName: __ZN3carC1ENSt3__112basic_stringIcNS0_11char_traitsIcEENS0_9allocatorIcEEEEibNS0_6chrono10time_pointINS7_12system_clockENS7_8durationIxNS0_5ratioILl1ELl1000000EEEEEEEii, symObjAddr: 0x7C, symBinAddr: 0x100022EE0, symSize: 0x68 }
  - { offsetInCU: 0x4AB1, offset: 0x589AD, size: 0x8, addend: 0x0, symName: __ZN3car8setModelENSt3__112basic_stringIcNS0_11char_traitsIcEENS0_9allocatorIcEEEE, symObjAddr: 0xE4, symBinAddr: 0x100022F48, symSize: 0x2C }
  - { offsetInCU: 0x4AE8, offset: 0x589E4, size: 0x8, addend: 0x0, symName: __ZN3car5setIdEi, symObjAddr: 0x110, symBinAddr: 0x100022F74, symSize: 0x20 }
  - { offsetInCU: 0x4B1E, offset: 0x58A1A, size: 0x8, addend: 0x0, symName: __ZN3car12setAvailableEb, symObjAddr: 0x130, symBinAddr: 0x100022F94, symSize: 0x2C }
  - { offsetInCU: 0x4B54, offset: 0x58A50, size: 0x8, addend: 0x0, symName: __ZN3car11setDue_dateENSt3__16chrono10time_pointINS1_12system_clockENS1_8durationIxNS0_5ratioILl1ELl1000000EEEEEEE, symObjAddr: 0x15C, symBinAddr: 0x100022FC0, symSize: 0x20 }
  - { offsetInCU: 0x4B8A, offset: 0x58A86, size: 0x8, addend: 0x0, symName: __ZN3car8getModelEv, symObjAddr: 0x17C, symBinAddr: 0x100022FE0, symSize: 0x38 }
  - { offsetInCU: 0x4BB2, offset: 0x58AAE, size: 0x8, addend: 0x0, symName: __ZN3car5getIdEv, symObjAddr: 0x1B4, symBinAddr: 0x100023018, symSize: 0x18 }
  - { offsetInCU: 0x4BDA, offset: 0x58AD6, size: 0x8, addend: 0x0, symName: __ZN3car12getAvailableEv, symObjAddr: 0x1CC, symBinAddr: 0x100023030, symSize: 0x1C }
  - { offsetInCU: 0x4C02, offset: 0x58AFE, size: 0x8, addend: 0x0, symName: __ZN3car8setPriceEi, symObjAddr: 0x1E8, symBinAddr: 0x10002304C, symSize: 0x20 }
  - { offsetInCU: 0x4C38, offset: 0x58B34, size: 0x8, addend: 0x0, symName: __ZN3car8getPriceEv, symObjAddr: 0x208, symBinAddr: 0x10002306C, symSize: 0x18 }
  - { offsetInCU: 0x4C60, offset: 0x58B5C, size: 0x8, addend: 0x0, symName: __ZN3car12getConditionEv, symObjAddr: 0x220, symBinAddr: 0x100023084, symSize: 0x18 }
  - { offsetInCU: 0x4C88, offset: 0x58B84, size: 0x8, addend: 0x0, symName: __ZN3car12setConditionEi, symObjAddr: 0x238, symBinAddr: 0x10002309C, symSize: 0x20 }
  - { offsetInCU: 0x4CBE, offset: 0x58BBA, size: 0x8, addend: 0x0, symName: __ZN3car11getDue_dateEv, symObjAddr: 0x258, symBinAddr: 0x1000230BC, symSize: 0x20 }
  - { offsetInCU: 0x6022, offset: 0x5EC09, size: 0x8, addend: 0x0, symName: __ZN11carDatabaseC2ENSt3__112basic_stringIcNS0_11char_traitsIcEENS0_9allocatorIcEEEEibNS0_6chrono10time_pointINS7_12system_clockENS7_8durationIxNS0_5ratioILl1ELl1000000EEEEEEEii, symObjAddr: 0x0, symBinAddr: 0x1000230DC, symSize: 0x10C }
  - { offsetInCU: 0x60A3, offset: 0x5EC8A, size: 0x8, addend: 0x0, symName: __ZN11carDatabaseC1ENSt3__112basic_stringIcNS0_11char_traitsIcEENS0_9allocatorIcEEEEibNS0_6chrono10time_pointINS7_12system_clockENS7_8durationIxNS0_5ratioILl1ELl1000000EEEEEEEii, symObjAddr: 0x1C4, symBinAddr: 0x1000231E8, symSize: 0x68 }
  - { offsetInCU: 0x6124, offset: 0x5ED0B, size: 0x8, addend: 0x0, symName: __ZN11carDatabase6addCarEv, symObjAddr: 0x22C, symBinAddr: 0x100023250, symSize: 0x3C }
  - { offsetInCU: 0x614C, offset: 0x5ED33, size: 0x8, addend: 0x0, symName: __ZN11carDatabase9deleteCarEv, symObjAddr: 0x2D4, symBinAddr: 0x10002328C, symSize: 0x188 }
  - { offsetInCU: 0x619E, offset: 0x5ED85, size: 0x8, addend: 0x0, symName: __ZN11carDatabase9updateCarEv, symObjAddr: 0x6D0, symBinAddr: 0x100023414, symSize: 0x3A0 }
  - { offsetInCU: 0x625A, offset: 0x5EE41, size: 0x8, addend: 0x0, symName: __ZN11carDatabase9searchCarEv, symObjAddr: 0xC90, symBinAddr: 0x1000237B4, symSize: 0x264 }
  - { offsetInCU: 0x4C91, offset: 0x63B76, size: 0x8, addend: 0x0, symName: __ZNSt3__115__debug_db_swapB7v160006INS_6vectorI8customerNS_9allocatorIS2_EEEEEEvPT_S7_, symObjAddr: 0x23C0, symBinAddr: 0x100024890, symSize: 0x14 }
  - { offsetInCU: 0x4CD0, offset: 0x63BB5, size: 0x8, addend: 0x0, symName: __ZNSt3__1miB7v160006IPK8customerS3_EEDTmicldtfp_4baseEcldtfp0_4baseEERKNS_11__wrap_iterIT_EERKNS5_IT0_EE, symObjAddr: 0x5054, symBinAddr: 0x100024A00, symSize: 0x48 }
  - { offsetInCU: 0x4D1C, offset: 0x63C01, size: 0x8, addend: 0x0, symName: __ZNSt3__14moveB7v160006IP8customerS2_EET0_T_S4_S3_, symObjAddr: 0x5128, symBinAddr: 0x100024AD4, symSize: 0x40 }
  - { offsetInCU: 0x4D76, offset: 0x63C5B, size: 0x8, addend: 0x0, symName: __ZNSt3__16__moveB7v160006INS_17_ClassicAlgPolicyEP8customerS3_S3_EENS_4pairIT0_T2_EES5_T1_S6_, symObjAddr: 0x5258, symBinAddr: 0x100024C04, symSize: 0x44 }
  - { offsetInCU: 0x4DE2, offset: 0x63CC7, size: 0x8, addend: 0x0, symName: __ZNSt3__123__dispatch_copy_or_moveB7v160006INS_17_ClassicAlgPolicyENS_11__move_loopIS1_EENS_14__move_trivialEP8customerS6_S6_EENS_4pairIT2_T4_EES8_T3_S9_, symObjAddr: 0x529C, symBinAddr: 0x100024C48, symSize: 0x44 }
  - { offsetInCU: 0x4E60, offset: 0x63D45, size: 0x8, addend: 0x0, symName: __ZNSt3__121__unwrap_and_dispatchB7v160006INS_10__overloadINS_11__move_loopINS_17_ClassicAlgPolicyEEENS_14__move_trivialEEEP8customerS8_S8_Li0EEENS_4pairIT0_T2_EESA_T1_SB_, symObjAddr: 0x52E0, symBinAddr: 0x100024C8C, symSize: 0xB4 }
  - { offsetInCU: 0x4EEE, offset: 0x63DD3, size: 0x8, addend: 0x0, symName: __ZNSt3__114__unwrap_rangeB7v160006IP8customerS2_EENS_4pairIT0_S4_EET_S6_, symObjAddr: 0x5394, symBinAddr: 0x100024D40, symSize: 0x60 }
  - { offsetInCU: 0x5060, offset: 0x63F45, size: 0x8, addend: 0x0, symName: __ZNSt3__113__unwrap_iterB7v160006IP8customerNS_18__unwrap_iter_implIS2_Lb1EEELi0EEEDTclsrT0_8__unwrapclsr3stdE7declvalIT_EEEES6_, symObjAddr: 0x5484, symBinAddr: 0x100024E30, symSize: 0x24 }
  - { offsetInCU: 0x50A4, offset: 0x63F89, size: 0x8, addend: 0x0, symName: __ZNSt3__19make_pairB7v160006IP8customerS2_EENS_4pairINS_18__unwrap_ref_decayIT_E4typeENS4_IT0_E4typeEEEOS5_OS8_, symObjAddr: 0x54A8, symBinAddr: 0x100024E54, symSize: 0x38 }
  - { offsetInCU: 0x50F3, offset: 0x63FD8, size: 0x8, addend: 0x0, symName: __ZNSt3__114__rewrap_rangeB7v160006IP8customerS2_EET_S3_T0_, symObjAddr: 0x54E0, symBinAddr: 0x100024E8C, symSize: 0x2C }
  - { offsetInCU: 0x513F, offset: 0x64024, size: 0x8, addend: 0x0, symName: __ZNSt3__113__rewrap_iterB7v160006IP8customerS2_NS_18__unwrap_iter_implIS2_Lb1EEEEET_S5_T0_, symObjAddr: 0x550C, symBinAddr: 0x100024EB8, symSize: 0x3C }
  - { offsetInCU: 0x78F4, offset: 0x667D9, size: 0x8, addend: 0x0, symName: __ZN16customerDatabaseC2ENSt3__112basic_stringIcNS0_11char_traitsIcEENS0_9allocatorIcEEEEiS6_iii, symObjAddr: 0x0, symBinAddr: 0x100023A18, symSize: 0x134 }
  - { offsetInCU: 0x7976, offset: 0x6685B, size: 0x8, addend: 0x0, symName: __ZNSt3__16vectorI8customerNS_9allocatorIS1_EEEaSB7v160006EOS4_, symObjAddr: 0x160, symBinAddr: 0x100023B4C, symSize: 0x34 }
  - { offsetInCU: 0x79AD, offset: 0x66892, size: 0x8, addend: 0x0, symName: __ZN16customerDatabaseC1ENSt3__112basic_stringIcNS0_11char_traitsIcEENS0_9allocatorIcEEEEiS6_iii, symObjAddr: 0x1F8, symBinAddr: 0x100023B80, symSize: 0x5C }
  - { offsetInCU: 0x7A2F, offset: 0x66914, size: 0x8, addend: 0x0, symName: __ZN16customerDatabase11addCustomerEv, symObjAddr: 0x254, symBinAddr: 0x100023BDC, symSize: 0x3C }
  - { offsetInCU: 0x7A57, offset: 0x6693C, size: 0x8, addend: 0x0, symName: __ZN16customerDatabase14deleteCustomerEv, symObjAddr: 0x2FC, symBinAddr: 0x100023C18, symSize: 0x188 }
  - { offsetInCU: 0x7AA9, offset: 0x6698E, size: 0x8, addend: 0x0, symName: __ZNSt3__16vectorI8customerNS_9allocatorIS1_EEE5eraseB7v160006ENS_11__wrap_iterIPKS1_EE, symObjAddr: 0x55C, symBinAddr: 0x100023DA0, symSize: 0xAC }
  - { offsetInCU: 0x7AFE, offset: 0x669E3, size: 0x8, addend: 0x0, symName: __ZNKSt3__111__wrap_iterIP8customerEplB7v160006El, symObjAddr: 0x638, symBinAddr: 0x100023E4C, symSize: 0x3C }
  - { offsetInCU: 0x7B4A, offset: 0x66A2F, size: 0x8, addend: 0x0, symName: __ZNSt3__111__wrap_iterIPK8customerEC1B7v160006IPS1_EERKNS0_IT_EEPNS_9enable_ifIXsr14is_convertibleIS7_S3_EE5valueEvE4typeE, symObjAddr: 0x674, symBinAddr: 0x100023E88, symSize: 0x3C }
  - { offsetInCU: 0x7B96, offset: 0x66A7B, size: 0x8, addend: 0x0, symName: __ZN16customerDatabase14updateCustomerEv, symObjAddr: 0x6F8, symBinAddr: 0x100023EC4, symSize: 0x518 }
  - { offsetInCU: 0x7C83, offset: 0x66B68, size: 0x8, addend: 0x0, symName: __ZN16customerDatabase14searchCustomerEv, symObjAddr: 0xE30, symBinAddr: 0x1000243DC, symSize: 0x2E0 }
  - { offsetInCU: 0x7CFA, offset: 0x66BDF, size: 0x8, addend: 0x0, symName: __ZNSt3__111__wrap_iterIP8customerEpLB7v160006El, symObjAddr: 0x1284, symBinAddr: 0x1000246BC, symSize: 0x30 }
  - { offsetInCU: 0x7D2E, offset: 0x66C13, size: 0x8, addend: 0x0, symName: __ZNSt3__111__wrap_iterIPK8customerEC2B7v160006IPS1_EERKNS0_IT_EEPNS_9enable_ifIXsr14is_convertibleIS7_S3_EE5valueEvE4typeE, symObjAddr: 0x12B4, symBinAddr: 0x1000246EC, symSize: 0x40 }
  - { offsetInCU: 0x7D7A, offset: 0x66C5F, size: 0x8, addend: 0x0, symName: __ZNSt3__16vectorI8customerNS_9allocatorIS1_EEE13__move_assignERS4_NS_17integral_constantIbLb1EEE, symObjAddr: 0x2234, symBinAddr: 0x10002472C, symSize: 0xAC }
  - { offsetInCU: 0x7DBD, offset: 0x66CA2, size: 0x8, addend: 0x0, symName: __ZNSt3__16vectorI8customerNS_9allocatorIS1_EEE13__vdeallocateEv, symObjAddr: 0x22E0, symBinAddr: 0x1000247D8, symSize: 0x8C }
  - { offsetInCU: 0x7DE5, offset: 0x66CCA, size: 0x8, addend: 0x0, symName: __ZNSt3__16vectorI8customerNS_9allocatorIS1_EEE19__move_assign_allocB7v160006ERS4_, symObjAddr: 0x236C, symBinAddr: 0x100024864, symSize: 0x2C }
  - { offsetInCU: 0x7E1A, offset: 0x66CFF, size: 0x8, addend: 0x0, symName: __ZNSt3__16vectorI8customerNS_9allocatorIS1_EEE5clearB7v160006Ev, symObjAddr: 0x23D4, symBinAddr: 0x1000248A4, symSize: 0x54 }
  - { offsetInCU: 0x7E4F, offset: 0x66D34, size: 0x8, addend: 0x0, symName: __ZNKSt3__16vectorI8customerNS_9allocatorIS1_EEE17__annotate_shrinkB7v160006Em, symObjAddr: 0x2428, symBinAddr: 0x1000248F8, symSize: 0xD0 }
  - { offsetInCU: 0x7E84, offset: 0x66D69, size: 0x8, addend: 0x0, symName: __ZNSt3__16vectorI8customerNS_9allocatorIS1_EEE19__move_assign_allocB7v160006ERS4_NS_17integral_constantIbLb1EEE, symObjAddr: 0x2508, symBinAddr: 0x1000249C8, symSize: 0x38 }
  - { offsetInCU: 0x7F21, offset: 0x66E06, size: 0x8, addend: 0x0, symName: __ZNKSt3__16vectorI8customerNS_9allocatorIS1_EEE6cbeginB7v160006Ev, symObjAddr: 0x509C, symBinAddr: 0x100024A48, symSize: 0x2C }
  - { offsetInCU: 0x7F47, offset: 0x66E2C, size: 0x8, addend: 0x0, symName: __ZNSt3__16vectorI8customerNS_9allocatorIS1_EEE17__destruct_at_endB7v160006EPS1_, symObjAddr: 0x50C8, symBinAddr: 0x100024A74, symSize: 0x60 }
  - { offsetInCU: 0x7F8B, offset: 0x66E70, size: 0x8, addend: 0x0, symName: __ZNSt3__16vectorI8customerNS_9allocatorIS1_EEE27__invalidate_iterators_pastB7v160006EPS1_, symObjAddr: 0x5168, symBinAddr: 0x100024B14, symSize: 0x14 }
  - { offsetInCU: 0x7FC2, offset: 0x66EA7, size: 0x8, addend: 0x0, symName: __ZNKSt3__111__wrap_iterIPK8customerE4baseB7v160006Ev, symObjAddr: 0x517C, symBinAddr: 0x100024B28, symSize: 0x18 }
  - { offsetInCU: 0x7FE8, offset: 0x66ECD, size: 0x8, addend: 0x0, symName: __ZNKSt3__16vectorI8customerNS_9allocatorIS1_EEE5beginB7v160006Ev, symObjAddr: 0x5194, symBinAddr: 0x100024B40, symSize: 0x30 }
  - { offsetInCU: 0x8010, offset: 0x66EF5, size: 0x8, addend: 0x0, symName: __ZNKSt3__16vectorI8customerNS_9allocatorIS1_EEE11__make_iterB7v160006EPKS1_, symObjAddr: 0x51C4, symBinAddr: 0x100024B70, symSize: 0x34 }
  - { offsetInCU: 0x8045, offset: 0x66F2A, size: 0x8, addend: 0x0, symName: __ZNSt3__111__wrap_iterIPK8customerEC1B7v160006EPKvS3_, symObjAddr: 0x51F8, symBinAddr: 0x100024BA4, symSize: 0x3C }
  - { offsetInCU: 0x808B, offset: 0x66F70, size: 0x8, addend: 0x0, symName: __ZNSt3__111__wrap_iterIPK8customerEC2B7v160006EPKvS3_, symObjAddr: 0x5234, symBinAddr: 0x100024BE0, symSize: 0x24 }
  - { offsetInCU: 0x80F5, offset: 0x66FDA, size: 0x8, addend: 0x0, symName: __ZNKSt3__111__move_loopINS_17_ClassicAlgPolicyEEclB7v160006IP8customerS5_S5_EENS_4pairIT_T1_EES7_T0_S8_, symObjAddr: 0x53F4, symBinAddr: 0x100024DA0, symSize: 0x90 }
  - { offsetInCU: 0x8160, offset: 0x67045, size: 0x8, addend: 0x0, symName: __ZNSt3__18_IterOpsINS_17_ClassicAlgPolicyEE11__iter_moveB7v160006IRP8customerEENS_9enable_ifIXsr12is_referenceIDTdeclsr3stdE7declvalIRT_EEEEE5valueEDTclsr3stdE4movedeclsr3stdE7declvalIS9_EEEEE4typeEOS8_, symObjAddr: 0x5548, symBinAddr: 0x100024EF4, symSize: 0x28 }
  - { offsetInCU: 0x818C, offset: 0x67071, size: 0x8, addend: 0x0, symName: __ZNSt3__18_IterOpsINS_17_ClassicAlgPolicyEE25__validate_iter_referenceB7v160006IRP8customerEEvv, symObjAddr: 0x55CC, symBinAddr: 0x100024F1C, symSize: 0x4 }
  - { offsetInCU: 0x81AF, offset: 0x67094, size: 0x8, addend: 0x0, symName: __ZNSt3__118__unwrap_iter_implIP8customerLb1EE8__unwrapB7v160006ES2_, symObjAddr: 0x5C80, symBinAddr: 0x100024F20, symSize: 0x24 }
  - { offsetInCU: 0x81D8, offset: 0x670BD, size: 0x8, addend: 0x0, symName: __ZNSt3__14pairIP8customerS2_EC1B7v160006IS2_S2_LPv0EEEOT_OT0_, symObjAddr: 0x5CA4, symBinAddr: 0x100024F44, symSize: 0x3C }
  - { offsetInCU: 0x8236, offset: 0x6711B, size: 0x8, addend: 0x0, symName: __ZNSt3__14pairIP8customerS2_EC2B7v160006IS2_S2_LPv0EEEOT_OT0_, symObjAddr: 0x5CE0, symBinAddr: 0x100024F80, symSize: 0x34 }
  - { offsetInCU: 0x8294, offset: 0x67179, size: 0x8, addend: 0x0, symName: __ZNSt3__118__unwrap_iter_implIP8customerLb1EE8__rewrapB7v160006ES2_S2_, symObjAddr: 0x5D14, symBinAddr: 0x100024FB4, symSize: 0x58 }
  - { offsetInCU: 0x4C91, offset: 0x6BE6C, size: 0x8, addend: 0x0, symName: __ZNSt3__115__debug_db_swapB7v160006INS_6vectorI8employeeNS_9allocatorIS2_EEEEEEvPT_S7_, symObjAddr: 0x2494, symBinAddr: 0x100025F58, symSize: 0x14 }
  - { offsetInCU: 0x4CD0, offset: 0x6BEAB, size: 0x8, addend: 0x0, symName: __ZNSt3__1miB7v160006IPK8employeeS3_EEDTmicldtfp_4baseEcldtfp0_4baseEERKNS_11__wrap_iterIT_EERKNS5_IT0_EE, symObjAddr: 0x5128, symBinAddr: 0x1000260C8, symSize: 0x48 }
  - { offsetInCU: 0x4D1C, offset: 0x6BEF7, size: 0x8, addend: 0x0, symName: __ZNSt3__14moveB7v160006IP8employeeS2_EET0_T_S4_S3_, symObjAddr: 0x51FC, symBinAddr: 0x10002619C, symSize: 0x40 }
  - { offsetInCU: 0x4D76, offset: 0x6BF51, size: 0x8, addend: 0x0, symName: __ZNSt3__16__moveB7v160006INS_17_ClassicAlgPolicyEP8employeeS3_S3_EENS_4pairIT0_T2_EES5_T1_S6_, symObjAddr: 0x532C, symBinAddr: 0x1000262CC, symSize: 0x44 }
  - { offsetInCU: 0x4DE2, offset: 0x6BFBD, size: 0x8, addend: 0x0, symName: __ZNSt3__123__dispatch_copy_or_moveB7v160006INS_17_ClassicAlgPolicyENS_11__move_loopIS1_EENS_14__move_trivialEP8employeeS6_S6_EENS_4pairIT2_T4_EES8_T3_S9_, symObjAddr: 0x5370, symBinAddr: 0x100026310, symSize: 0x44 }
  - { offsetInCU: 0x4E60, offset: 0x6C03B, size: 0x8, addend: 0x0, symName: __ZNSt3__121__unwrap_and_dispatchB7v160006INS_10__overloadINS_11__move_loopINS_17_ClassicAlgPolicyEEENS_14__move_trivialEEEP8employeeS8_S8_Li0EEENS_4pairIT0_T2_EESA_T1_SB_, symObjAddr: 0x53B4, symBinAddr: 0x100026354, symSize: 0xB4 }
  - { offsetInCU: 0x4EEE, offset: 0x6C0C9, size: 0x8, addend: 0x0, symName: __ZNSt3__114__unwrap_rangeB7v160006IP8employeeS2_EENS_4pairIT0_S4_EET_S6_, symObjAddr: 0x5468, symBinAddr: 0x100026408, symSize: 0x60 }
  - { offsetInCU: 0x5060, offset: 0x6C23B, size: 0x8, addend: 0x0, symName: __ZNSt3__113__unwrap_iterB7v160006IP8employeeNS_18__unwrap_iter_implIS2_Lb1EEELi0EEEDTclsrT0_8__unwrapclsr3stdE7declvalIT_EEEES6_, symObjAddr: 0x5558, symBinAddr: 0x1000264F8, symSize: 0x24 }
  - { offsetInCU: 0x50A4, offset: 0x6C27F, size: 0x8, addend: 0x0, symName: __ZNSt3__19make_pairB7v160006IP8employeeS2_EENS_4pairINS_18__unwrap_ref_decayIT_E4typeENS4_IT0_E4typeEEEOS5_OS8_, symObjAddr: 0x557C, symBinAddr: 0x10002651C, symSize: 0x38 }
  - { offsetInCU: 0x50F3, offset: 0x6C2CE, size: 0x8, addend: 0x0, symName: __ZNSt3__114__rewrap_rangeB7v160006IP8employeeS2_EET_S3_T0_, symObjAddr: 0x55B4, symBinAddr: 0x100026554, symSize: 0x2C }
  - { offsetInCU: 0x513F, offset: 0x6C31A, size: 0x8, addend: 0x0, symName: __ZNSt3__113__rewrap_iterB7v160006IP8employeeS2_NS_18__unwrap_iter_implIS2_Lb1EEEEET_S5_T0_, symObjAddr: 0x55E0, symBinAddr: 0x100026580, symSize: 0x3C }
  - { offsetInCU: 0x78F4, offset: 0x6EACF, size: 0x8, addend: 0x0, symName: __ZN16employeeDatabaseC2ENSt3__112basic_stringIcNS0_11char_traitsIcEENS0_9allocatorIcEEEEiS6_iii, symObjAddr: 0x0, symBinAddr: 0x10002500C, symSize: 0x134 }
  - { offsetInCU: 0x7976, offset: 0x6EB51, size: 0x8, addend: 0x0, symName: __ZNSt3__16vectorI8employeeNS_9allocatorIS1_EEEaSB7v160006EOS4_, symObjAddr: 0x160, symBinAddr: 0x100025140, symSize: 0x34 }
  - { offsetInCU: 0x79AD, offset: 0x6EB88, size: 0x8, addend: 0x0, symName: __ZN16employeeDatabaseC1ENSt3__112basic_stringIcNS0_11char_traitsIcEENS0_9allocatorIcEEEEiS6_iii, symObjAddr: 0x1F8, symBinAddr: 0x100025174, symSize: 0x5C }
  - { offsetInCU: 0x7A2F, offset: 0x6EC0A, size: 0x8, addend: 0x0, symName: __ZN16employeeDatabase11addEmployeeEv, symObjAddr: 0x254, symBinAddr: 0x1000251D0, symSize: 0x3C }
  - { offsetInCU: 0x7A57, offset: 0x6EC32, size: 0x8, addend: 0x0, symName: __ZN16employeeDatabase14deleteEmployeeEv, symObjAddr: 0x2FC, symBinAddr: 0x10002520C, symSize: 0x188 }
  - { offsetInCU: 0x7AA9, offset: 0x6EC84, size: 0x8, addend: 0x0, symName: __ZNSt3__16vectorI8employeeNS_9allocatorIS1_EEE5eraseB7v160006ENS_11__wrap_iterIPKS1_EE, symObjAddr: 0x55C, symBinAddr: 0x100025394, symSize: 0xAC }
  - { offsetInCU: 0x7AFE, offset: 0x6ECD9, size: 0x8, addend: 0x0, symName: __ZNKSt3__111__wrap_iterIP8employeeEplB7v160006El, symObjAddr: 0x638, symBinAddr: 0x100025440, symSize: 0x3C }
  - { offsetInCU: 0x7B4A, offset: 0x6ED25, size: 0x8, addend: 0x0, symName: __ZNSt3__111__wrap_iterIPK8employeeEC1B7v160006IPS1_EERKNS0_IT_EEPNS_9enable_ifIXsr14is_convertibleIS7_S3_EE5valueEvE4typeE, symObjAddr: 0x674, symBinAddr: 0x10002547C, symSize: 0x3C }
  - { offsetInCU: 0x7B96, offset: 0x6ED71, size: 0x8, addend: 0x0, symName: __ZN16employeeDatabase14updateEmployeeEv, symObjAddr: 0x6F8, symBinAddr: 0x1000254B8, symSize: 0x5EC }
  - { offsetInCU: 0x7C99, offset: 0x6EE74, size: 0x8, addend: 0x0, symName: __ZN16employeeDatabase14searchEmployeeEv, symObjAddr: 0xF04, symBinAddr: 0x100025AA4, symSize: 0x2E0 }
  - { offsetInCU: 0x7D10, offset: 0x6EEEB, size: 0x8, addend: 0x0, symName: __ZNSt3__111__wrap_iterIP8employeeEpLB7v160006El, symObjAddr: 0x1358, symBinAddr: 0x100025D84, symSize: 0x30 }
  - { offsetInCU: 0x7D44, offset: 0x6EF1F, size: 0x8, addend: 0x0, symName: __ZNSt3__111__wrap_iterIPK8employeeEC2B7v160006IPS1_EERKNS0_IT_EEPNS_9enable_ifIXsr14is_convertibleIS7_S3_EE5valueEvE4typeE, symObjAddr: 0x1388, symBinAddr: 0x100025DB4, symSize: 0x40 }
  - { offsetInCU: 0x7D90, offset: 0x6EF6B, size: 0x8, addend: 0x0, symName: __ZNSt3__16vectorI8employeeNS_9allocatorIS1_EEE13__move_assignERS4_NS_17integral_constantIbLb1EEE, symObjAddr: 0x2308, symBinAddr: 0x100025DF4, symSize: 0xAC }
  - { offsetInCU: 0x7DD3, offset: 0x6EFAE, size: 0x8, addend: 0x0, symName: __ZNSt3__16vectorI8employeeNS_9allocatorIS1_EEE13__vdeallocateEv, symObjAddr: 0x23B4, symBinAddr: 0x100025EA0, symSize: 0x8C }
  - { offsetInCU: 0x7DFB, offset: 0x6EFD6, size: 0x8, addend: 0x0, symName: __ZNSt3__16vectorI8employeeNS_9allocatorIS1_EEE19__move_assign_allocB7v160006ERS4_, symObjAddr: 0x2440, symBinAddr: 0x100025F2C, symSize: 0x2C }
  - { offsetInCU: 0x7E30, offset: 0x6F00B, size: 0x8, addend: 0x0, symName: __ZNSt3__16vectorI8employeeNS_9allocatorIS1_EEE5clearB7v160006Ev, symObjAddr: 0x24A8, symBinAddr: 0x100025F6C, symSize: 0x54 }
  - { offsetInCU: 0x7E65, offset: 0x6F040, size: 0x8, addend: 0x0, symName: __ZNKSt3__16vectorI8employeeNS_9allocatorIS1_EEE17__annotate_shrinkB7v160006Em, symObjAddr: 0x24FC, symBinAddr: 0x100025FC0, symSize: 0xD0 }
  - { offsetInCU: 0x7E9A, offset: 0x6F075, size: 0x8, addend: 0x0, symName: __ZNSt3__16vectorI8employeeNS_9allocatorIS1_EEE19__move_assign_allocB7v160006ERS4_NS_17integral_constantIbLb1EEE, symObjAddr: 0x25DC, symBinAddr: 0x100026090, symSize: 0x38 }
  - { offsetInCU: 0x7F37, offset: 0x6F112, size: 0x8, addend: 0x0, symName: __ZNKSt3__16vectorI8employeeNS_9allocatorIS1_EEE6cbeginB7v160006Ev, symObjAddr: 0x5170, symBinAddr: 0x100026110, symSize: 0x2C }
  - { offsetInCU: 0x7F5D, offset: 0x6F138, size: 0x8, addend: 0x0, symName: __ZNSt3__16vectorI8employeeNS_9allocatorIS1_EEE17__destruct_at_endB7v160006EPS1_, symObjAddr: 0x519C, symBinAddr: 0x10002613C, symSize: 0x60 }
  - { offsetInCU: 0x7FA1, offset: 0x6F17C, size: 0x8, addend: 0x0, symName: __ZNSt3__16vectorI8employeeNS_9allocatorIS1_EEE27__invalidate_iterators_pastB7v160006EPS1_, symObjAddr: 0x523C, symBinAddr: 0x1000261DC, symSize: 0x14 }
  - { offsetInCU: 0x7FD8, offset: 0x6F1B3, size: 0x8, addend: 0x0, symName: __ZNKSt3__111__wrap_iterIPK8employeeE4baseB7v160006Ev, symObjAddr: 0x5250, symBinAddr: 0x1000261F0, symSize: 0x18 }
  - { offsetInCU: 0x7FFE, offset: 0x6F1D9, size: 0x8, addend: 0x0, symName: __ZNKSt3__16vectorI8employeeNS_9allocatorIS1_EEE5beginB7v160006Ev, symObjAddr: 0x5268, symBinAddr: 0x100026208, symSize: 0x30 }
  - { offsetInCU: 0x8026, offset: 0x6F201, size: 0x8, addend: 0x0, symName: __ZNKSt3__16vectorI8employeeNS_9allocatorIS1_EEE11__make_iterB7v160006EPKS1_, symObjAddr: 0x5298, symBinAddr: 0x100026238, symSize: 0x34 }
  - { offsetInCU: 0x805B, offset: 0x6F236, size: 0x8, addend: 0x0, symName: __ZNSt3__111__wrap_iterIPK8employeeEC1B7v160006EPKvS3_, symObjAddr: 0x52CC, symBinAddr: 0x10002626C, symSize: 0x3C }
  - { offsetInCU: 0x80A1, offset: 0x6F27C, size: 0x8, addend: 0x0, symName: __ZNSt3__111__wrap_iterIPK8employeeEC2B7v160006EPKvS3_, symObjAddr: 0x5308, symBinAddr: 0x1000262A8, symSize: 0x24 }
  - { offsetInCU: 0x810B, offset: 0x6F2E6, size: 0x8, addend: 0x0, symName: __ZNKSt3__111__move_loopINS_17_ClassicAlgPolicyEEclB7v160006IP8employeeS5_S5_EENS_4pairIT_T1_EES7_T0_S8_, symObjAddr: 0x54C8, symBinAddr: 0x100026468, symSize: 0x90 }
  - { offsetInCU: 0x8176, offset: 0x6F351, size: 0x8, addend: 0x0, symName: __ZNSt3__18_IterOpsINS_17_ClassicAlgPolicyEE11__iter_moveB7v160006IRP8employeeEENS_9enable_ifIXsr12is_referenceIDTdeclsr3stdE7declvalIRT_EEEEE5valueEDTclsr3stdE4movedeclsr3stdE7declvalIS9_EEEEE4typeEOS8_, symObjAddr: 0x561C, symBinAddr: 0x1000265BC, symSize: 0x28 }
  - { offsetInCU: 0x81A2, offset: 0x6F37D, size: 0x8, addend: 0x0, symName: __ZNSt3__18_IterOpsINS_17_ClassicAlgPolicyEE25__validate_iter_referenceB7v160006IRP8employeeEEvv, symObjAddr: 0x56A0, symBinAddr: 0x1000265E4, symSize: 0x4 }
  - { offsetInCU: 0x81C5, offset: 0x6F3A0, size: 0x8, addend: 0x0, symName: __ZNSt3__118__unwrap_iter_implIP8employeeLb1EE8__unwrapB7v160006ES2_, symObjAddr: 0x5D54, symBinAddr: 0x1000265E8, symSize: 0x24 }
  - { offsetInCU: 0x81EE, offset: 0x6F3C9, size: 0x8, addend: 0x0, symName: __ZNSt3__14pairIP8employeeS2_EC1B7v160006IS2_S2_LPv0EEEOT_OT0_, symObjAddr: 0x5D78, symBinAddr: 0x10002660C, symSize: 0x3C }
  - { offsetInCU: 0x824C, offset: 0x6F427, size: 0x8, addend: 0x0, symName: __ZNSt3__14pairIP8employeeS2_EC2B7v160006IS2_S2_LPv0EEEOT_OT0_, symObjAddr: 0x5DB4, symBinAddr: 0x100026648, symSize: 0x34 }
  - { offsetInCU: 0x82AA, offset: 0x6F485, size: 0x8, addend: 0x0, symName: __ZNSt3__118__unwrap_iter_implIP8employeeLb1EE8__rewrapB7v160006ES2_S2_, symObjAddr: 0x5DE8, symBinAddr: 0x10002667C, symSize: 0x58 }
...
